Certificate:
    Data:
        Version: 3 (0x2)
        Serial Number:
            d9:29:cb:9b:45:a3:bb:9e
    Signature Algorithm: sha256WithRSAEncryption
        Issuer: C=US, ST=California, L=California, O=Alice CA Ltd., OU=Alice CA Ltd., CN=Alice CA Ltd./emailAddress=ca@ca_alice.com
        Validity
            Not Before: Jun 24 07:58:47 2018 GMT
            Not After : Jun 24 07:58:47 2019 GMT
        Subject: C=KR, ST=Seoul, L=Seoul, O=SNU, OU=MMLAB, CN=j.matls.com/emailAddress=j@matls.com
        Subject Public Key Info:
            Public Key Algorithm: rsaEncryption
                Public-Key: (2048 bit)
                Modulus:
                    00:cf:a0:90:da:7f:ec:00:72:20:18:f0:53:dd:83:
                    49:6d:9b:0c:27:b6:54:78:82:94:ee:ac:b0:48:a7:
                    a7:d6:d1:e0:5b:5d:b9:41:77:2e:0d:e7:32:f8:de:
                    50:07:25:23:ce:17:0c:cf:6b:54:86:4a:cc:f5:f3:
                    b9:f9:01:98:44:59:3c:aa:9b:cc:6f:51:3c:92:e1:
                    ec:2a:b5:3d:89:c7:12:9c:56:c7:4e:9d:92:26:4e:
                    50:09:4f:a2:fd:ba:0a:84:6f:b0:ed:ab:5f:c8:6d:
                    c2:52:ae:4d:d4:f4:1e:5d:31:b2:d5:7d:6a:1c:e0:
                    59:88:54:f5:70:f0:86:08:5e:09:60:87:09:42:d5:
                    52:6b:a3:55:3b:0c:36:c2:02:f6:76:17:7b:2a:43:
                    fd:8f:c9:be:da:f3:5f:68:f8:ea:7d:69:78:7c:c9:
                    16:7b:e2:a8:e7:82:ec:bd:ab:8a:84:15:e9:ff:2d:
                    86:19:45:f3:5d:81:88:9a:bc:8f:e6:ee:c5:b0:14:
                    c3:41:ca:bf:15:53:87:63:1d:5b:18:88:80:0e:d2:
                    85:b0:b0:86:a0:b8:c8:08:a6:fb:3d:74:c8:e5:2b:
                    07:8c:97:ab:d1:b5:57:62:3f:d9:ac:1f:e3:34:93:
                    5f:95:3a:11:c4:f9:b1:4f:ad:ce:13:c4:32:c5:51:
                    ef:25
                Exponent: 65537 (0x10001)
        X509v3 extensions:
            X509v3 Basic Constraints: 
                CA:FALSE
            X509v3 Key Usage: 
                Digital Signature, Non Repudiation, Key Encipherment
            X509v3 Subject Alternative Name: 
                DNS:*.matls.com
    Signature Algorithm: sha256WithRSAEncryption
         c0:55:ab:c1:82:f5:7e:17:b8:de:4b:10:35:87:df:d8:ed:c8:
         51:41:7b:fe:0d:de:13:68:7b:92:d7:a1:5f:33:cd:2c:f6:f2:
         34:68:85:15:cf:50:32:5a:0a:9f:3b:4c:5d:c4:8d:e6:4c:d7:
         14:fe:76:8d:ef:eb:8f:d1:8e:95:3a:50:e3:3c:ab:f0:31:63:
         13:df:63:83:57:ac:a6:77:61:c4:6d:0a:66:75:b0:87:75:49:
         16:3f:40:19:21:e8:df:7e:8e:08:71:c1:f9:2c:10:be:91:95:
         04:b3:19:fe:28:30:12:47:7e:ff:36:31:0d:ca:74:23:ba:d2:
         fc:e7:e3:06:4e:de:1b:be:1c:1e:68:3d:04:49:68:6d:b6:b8:
         49:5b:51:71:c3:10:22:c6:41:8d:cb:b2:97:3e:f9:14:bc:bf:
         18:73:37:77:63:aa:99:5a:99:23:74:d9:81:be:61:29:1d:e9:
         19:4b:dc:f6:d1:8f:70:6c:ca:ca:c8:9f:e0:a4:3c:83:b1:65:
         86:88:e1:7a:64:36:4a:12:1a:5e:2b:8b:94:82:53:a0:74:e7:
         fb:ba:34:ab:b1:00:2d:99:75:72:05:3e:bd:3c:52:40:27:fb:
         3c:00:e3:b9:cc:35:d7:84:bb:f3:42:d9:ea:2b:5c:6e:ae:ee:
         ea:ad:3f:11
-----BEGIN CERTIFICATE-----
MIID0jCCArqgAwIBAgIJANkpy5tFo7ueMA0GCSqGSIb3DQEBCwUAMIGfMQswCQYD
VQQGEwJVUzETMBEGA1UECAwKQ2FsaWZvcm5pYTETMBEGA1UEBwwKQ2FsaWZvcm5p
YTEWMBQGA1UECgwNQWxpY2UgQ0EgTHRkLjEWMBQGA1UECwwNQWxpY2UgQ0EgTHRk
LjEWMBQGA1UEAwwNQWxpY2UgQ0EgTHRkLjEeMBwGCSqGSIb3DQEJARYPY2FAY2Ff
YWxpY2UuY29tMB4XDTE4MDYyNDA3NTg0N1oXDTE5MDYyNDA3NTg0N1owfTELMAkG
A1UEBhMCS1IxDjAMBgNVBAgMBVNlb3VsMQ4wDAYDVQQHDAVTZW91bDEMMAoGA1UE
CgwDU05VMQ4wDAYDVQQLDAVNTUxBQjEUMBIGA1UEAwwLai5tYXRscy5jb20xGjAY
BgkqhkiG9w0BCQEWC2pAbWF0bHMuY29tMIIBIjANBgkqhkiG9w0BAQEFAAOCAQ8A
MIIBCgKCAQEAz6CQ2n/sAHIgGPBT3YNJbZsMJ7ZUeIKU7qywSKen1tHgW125QXcu
Decy+N5QByUjzhcMz2tUhkrM9fO5+QGYRFk8qpvMb1E8kuHsKrU9iccSnFbHTp2S
Jk5QCU+i/boKhG+w7atfyG3CUq5N1PQeXTGy1X1qHOBZiFT1cPCGCF4JYIcJQtVS
a6NVOww2wgL2dhd7KkP9j8m+2vNfaPjqfWl4fMkWe+Ko54LsvauKhBXp/y2GGUXz
XYGImryP5u7FsBTDQcq/FVOHYx1bGIiADtKFsLCGoLjICKb7PXTI5SsHjJer0bVX
Yj/ZrB/jNJNflToRxPmxT63OE8QyxVHvJQIDAQABozIwMDAJBgNVHRMEAjAAMAsG
A1UdDwQEAwIF4DAWBgNVHREEDzANggsqLm1hdGxzLmNvbTANBgkqhkiG9w0BAQsF
AAOCAQEAwFWrwYL1fhe43ksQNYff2O3IUUF7/g3eE2h7ktehXzPNLPbyNGiFFc9Q
MloKnztMXcSN5kzXFP52je/rj9GOlTpQ4zyr8DFjE99jg1espndhxG0KZnWwh3VJ
Fj9AGSHo336OCHHB+SwQvpGVBLMZ/igwEkd+/zYxDcp0I7rS/OfjBk7eG74cHmg9
BElobba4SVtRccMQIsZBjcuylz75FLy/GHM3d2OqmVqZI3TZgb5hKR3pGUvc9tGP
cGzKysif4KQ8g7FlhojhemQ2ShIaXiuLlIJToHTn+7o0q7EALZl1cgU+vTxSQCf7
PADjucw114S780LZ6itcbq7u6q0/EQ==
-----END CERTIFICATE-----
