Certificate:
    Data:
        Version: 3 (0x2)
        Serial Number:
            d9:29:cb:9b:45:a3:bb:9f
    Signature Algorithm: sha256WithRSAEncryption
        Issuer: C=US, ST=California, L=California, O=Alice CA Ltd., OU=Alice CA Ltd., CN=Alice CA Ltd./emailAddress=ca@ca_alice.com
        Validity
            Not Before: Jun 24 07:58:57 2018 GMT
            Not After : Jun 24 07:58:57 2019 GMT
        Subject: C=KR, ST=Seoul, L=Seoul, O=SNU, OU=MMLAB, CN=k.matls.com/emailAddress=k@matls.com
        Subject Public Key Info:
            Public Key Algorithm: rsaEncryption
                Public-Key: (2048 bit)
                Modulus:
                    00:a3:46:b7:c4:de:5d:69:69:84:2b:ed:d1:00:8c:
                    06:00:1c:e7:ad:bc:45:d2:cc:f4:1f:e1:e8:5a:6e:
                    4b:d2:f8:20:8c:35:3c:f3:7f:6d:dd:b9:49:fd:81:
                    60:1e:c2:5b:e3:d7:94:79:5d:7b:3e:90:fb:54:b6:
                    57:c6:d6:9e:db:78:8e:09:16:fa:65:13:c4:ef:c9:
                    63:92:cd:86:85:1d:d4:15:50:ea:0f:5b:60:2b:58:
                    bb:27:bc:98:f1:f1:c3:fb:95:e4:51:f2:67:18:17:
                    da:ac:3a:d5:4d:b2:fb:59:d7:5c:ce:d7:14:6d:93:
                    6e:dc:6d:ff:e7:25:62:71:42:61:c8:f0:4c:fe:2d:
                    c2:7b:7b:f9:6b:28:6a:49:d7:6b:23:f4:1b:c9:f5:
                    5f:66:c2:5d:90:e6:3a:07:b5:1e:1b:14:c6:2c:ef:
                    6e:b0:cd:4b:a6:ed:39:fd:af:fd:78:d6:c9:5e:6f:
                    ad:2a:a7:3e:85:91:e9:02:cf:7b:e1:f5:f2:30:36:
                    8b:db:dd:da:cf:88:e2:af:0f:3f:c6:f8:7b:f8:29:
                    ff:7f:f4:5a:be:02:91:cc:1c:20:9a:87:b4:5d:8a:
                    a5:b3:8c:e1:48:cc:d8:e5:89:45:24:ee:73:78:ca:
                    6f:74:40:a7:08:dd:00:4a:66:c4:34:82:6a:44:a9:
                    47:57
                Exponent: 65537 (0x10001)
        X509v3 extensions:
            X509v3 Basic Constraints: 
                CA:FALSE
            X509v3 Key Usage: 
                Digital Signature, Non Repudiation, Key Encipherment
            X509v3 Subject Alternative Name: 
                DNS:*.matls.com
    Signature Algorithm: sha256WithRSAEncryption
         4a:cc:02:67:6b:f5:29:ed:4e:d3:02:32:12:dd:52:2c:7f:c8:
         b4:0a:b1:92:b8:5b:29:42:aa:b0:04:54:3c:a9:5d:65:21:c7:
         5c:cf:19:8e:ec:9b:1e:b9:7e:63:be:c9:ee:8a:9a:c8:1e:ea:
         64:c4:02:fc:61:f8:88:3a:46:4d:2b:4e:b2:f2:24:19:07:ce:
         89:e1:8f:14:95:4a:1c:e3:9b:b6:9a:2e:8d:16:65:6d:02:e7:
         d0:49:57:f2:f1:a1:c9:12:7d:19:ce:b1:20:a8:7b:7e:a9:50:
         77:06:b2:cb:50:3d:06:fc:40:42:69:a5:a6:94:bc:ba:dd:ce:
         83:ee:80:99:d6:45:1e:73:6d:64:74:c0:8a:ab:bd:a5:db:a3:
         fc:d5:4a:a4:b1:58:1a:ca:34:d6:cc:2e:40:db:44:e2:fb:de:
         2a:0a:98:8b:1b:11:07:c0:ab:a1:83:96:f2:67:d6:89:71:aa:
         34:7c:78:4c:23:0a:59:3a:6b:64:e3:e5:a4:c2:37:ad:fa:4d:
         85:26:a8:d3:d6:a6:53:b8:f5:3d:f9:a4:2d:20:d9:4d:be:b9:
         40:65:6e:b6:da:59:9b:b7:00:ee:c8:2b:b4:c9:a5:8d:a2:36:
         61:91:45:b9:2b:65:d7:f1:df:87:f2:c5:21:56:1f:12:dc:d6:
         98:3d:7f:8b
-----BEGIN CERTIFICATE-----
MIID0jCCArqgAwIBAgIJANkpy5tFo7ufMA0GCSqGSIb3DQEBCwUAMIGfMQswCQYD
VQQGEwJVUzETMBEGA1UECAwKQ2FsaWZvcm5pYTETMBEGA1UEBwwKQ2FsaWZvcm5p
YTEWMBQGA1UECgwNQWxpY2UgQ0EgTHRkLjEWMBQGA1UECwwNQWxpY2UgQ0EgTHRk
LjEWMBQGA1UEAwwNQWxpY2UgQ0EgTHRkLjEeMBwGCSqGSIb3DQEJARYPY2FAY2Ff
YWxpY2UuY29tMB4XDTE4MDYyNDA3NTg1N1oXDTE5MDYyNDA3NTg1N1owfTELMAkG
A1UEBhMCS1IxDjAMBgNVBAgMBVNlb3VsMQ4wDAYDVQQHDAVTZW91bDEMMAoGA1UE
CgwDU05VMQ4wDAYDVQQLDAVNTUxBQjEUMBIGA1UEAwwLay5tYXRscy5jb20xGjAY
BgkqhkiG9w0BCQEWC2tAbWF0bHMuY29tMIIBIjANBgkqhkiG9w0BAQEFAAOCAQ8A
MIIBCgKCAQEAo0a3xN5daWmEK+3RAIwGABznrbxF0sz0H+HoWm5L0vggjDU8839t
3blJ/YFgHsJb49eUeV17PpD7VLZXxtae23iOCRb6ZRPE78ljks2GhR3UFVDqD1tg
K1i7J7yY8fHD+5XkUfJnGBfarDrVTbL7WddcztcUbZNu3G3/5yVicUJhyPBM/i3C
e3v5ayhqSddrI/QbyfVfZsJdkOY6B7UeGxTGLO9usM1Lpu05/a/9eNbJXm+tKqc+
hZHpAs974fXyMDaL293az4jirw8/xvh7+Cn/f/RavgKRzBwgmoe0XYqls4zhSMzY
5YlFJO5zeMpvdECnCN0ASmbENIJqRKlHVwIDAQABozIwMDAJBgNVHRMEAjAAMAsG
A1UdDwQEAwIF4DAWBgNVHREEDzANggsqLm1hdGxzLmNvbTANBgkqhkiG9w0BAQsF
AAOCAQEASswCZ2v1Ke1O0wIyEt1SLH/ItAqxkrhbKUKqsARUPKldZSHHXM8Zjuyb
Hrl+Y77J7oqayB7qZMQC/GH4iDpGTStOsvIkGQfOieGPFJVKHOObtpoujRZlbQLn
0ElX8vGhyRJ9Gc6xIKh7fqlQdwayy1A9BvxAQmmlppS8ut3Og+6AmdZFHnNtZHTA
iqu9pduj/NVKpLFYGso01swuQNtE4vveKgqYixsRB8CroYOW8mfWiXGqNHx4TCMK
WTprZOPlpMI3rfpNhSao09amU7j1PfmkLSDZTb65QGVuttpZm7cA7sgrtMmljaI2
YZFFuStl1/Hfh/LFIVYfEtzWmD1/iw==
-----END CERTIFICATE-----
