Certificate:
    Data:
        Version: 3 (0x2)
        Serial Number:
            d9:29:cb:9b:45:a3:bb:a0
    Signature Algorithm: sha256WithRSAEncryption
        Issuer: C=US, ST=California, L=California, O=Alice CA Ltd., OU=Alice CA Ltd., CN=Alice CA Ltd./emailAddress=ca@ca_alice.com
        Validity
            Not Before: Jun 24 07:59:03 2018 GMT
            Not After : Jun 24 07:59:03 2019 GMT
        Subject: C=KR, ST=Seoul, L=Seoul, O=SNU, OU=MMLAB, CN=l.matls.com/emailAddress=l@matls.com
        Subject Public Key Info:
            Public Key Algorithm: rsaEncryption
                Public-Key: (2048 bit)
                Modulus:
                    00:ef:8a:99:05:e8:1c:15:c1:f0:82:a6:de:47:78:
                    ad:fc:b0:4f:63:62:a3:2a:5b:0b:70:89:57:08:36:
                    17:f0:72:67:39:da:40:b7:66:50:e8:0b:e5:2a:17:
                    80:02:ac:ac:99:86:85:ae:28:2d:c4:3f:9a:7a:7a:
                    6c:85:3e:a1:18:d1:21:af:5b:ae:85:1a:e6:8d:7a:
                    93:fc:72:70:c5:5e:28:ae:bb:ec:ec:a5:16:c7:f8:
                    e7:99:89:9c:96:2d:82:f5:f7:63:45:60:de:fb:d6:
                    ee:53:da:cb:96:93:18:d4:34:81:b7:65:dc:3b:93:
                    db:62:07:a4:11:94:47:52:f6:13:63:46:3e:1b:c4:
                    eb:6b:17:a8:0c:47:fd:3c:fc:e6:23:42:c5:8c:ab:
                    4c:34:4b:91:4e:5c:16:ed:33:26:9a:96:be:0e:47:
                    a3:2f:42:2c:a6:86:22:8e:07:60:1a:51:a1:43:08:
                    cf:9e:94:e7:30:d4:d0:6d:6a:2b:26:5c:7e:0d:8e:
                    58:94:c8:19:ce:d1:df:88:66:8d:ad:27:8d:67:4d:
                    cc:56:d9:83:52:5e:4f:3f:af:22:e3:78:63:c6:4e:
                    b5:6b:b0:eb:98:3c:01:c7:8f:2c:82:0b:f8:8e:cb:
                    ac:ac:58:74:7d:d9:e9:1b:f5:68:b6:fd:41:4d:e0:
                    af:4f
                Exponent: 65537 (0x10001)
        X509v3 extensions:
            X509v3 Basic Constraints: 
                CA:FALSE
            X509v3 Key Usage: 
                Digital Signature, Non Repudiation, Key Encipherment
            X509v3 Subject Alternative Name: 
                DNS:*.matls.com
    Signature Algorithm: sha256WithRSAEncryption
         29:64:0f:75:a0:dd:46:2d:ab:f4:91:23:72:07:a9:53:c5:2f:
         af:10:d1:cd:65:14:5d:81:00:38:0f:93:0f:67:09:37:43:57:
         8e:68:0a:62:ca:93:45:ae:50:d2:ef:08:a8:5c:c7:46:c5:1c:
         6e:58:63:fd:ba:0f:59:34:6a:60:3e:14:71:38:de:15:f0:bf:
         4c:5e:e6:89:44:ca:1f:8b:9d:f3:fb:ae:81:2d:7b:30:33:7c:
         56:e3:5e:c8:c7:08:76:79:df:77:ca:a0:17:f3:66:2a:e8:6a:
         e7:10:78:1d:14:1f:cf:0b:5c:f2:4d:79:ff:eb:9f:ba:94:d9:
         29:5c:e9:f0:ae:8f:57:0c:75:23:9c:e5:18:d5:69:a2:11:54:
         73:40:38:12:1a:9d:a3:52:63:09:ec:bf:dd:64:8a:ec:ff:8f:
         d6:b5:6a:58:12:aa:b9:c9:87:48:ad:05:cf:f8:28:ef:ee:58:
         38:f5:bb:92:b0:92:e0:2d:fd:5b:bc:d1:11:fd:2a:0f:ce:89:
         21:a6:51:4c:b1:5d:0f:27:f4:e2:c8:97:a6:9e:de:b7:4f:ed:
         b1:7d:d2:28:90:95:0f:3b:49:65:49:1a:12:04:68:8e:89:dd:
         3b:96:b5:f1:9b:94:d1:06:0b:89:f7:c0:a2:e4:b8:69:bf:7e:
         26:98:7c:a6
-----BEGIN CERTIFICATE-----
MIID0jCCArqgAwIBAgIJANkpy5tFo7ugMA0GCSqGSIb3DQEBCwUAMIGfMQswCQYD
VQQGEwJVUzETMBEGA1UECAwKQ2FsaWZvcm5pYTETMBEGA1UEBwwKQ2FsaWZvcm5p
YTEWMBQGA1UECgwNQWxpY2UgQ0EgTHRkLjEWMBQGA1UECwwNQWxpY2UgQ0EgTHRk
LjEWMBQGA1UEAwwNQWxpY2UgQ0EgTHRkLjEeMBwGCSqGSIb3DQEJARYPY2FAY2Ff
YWxpY2UuY29tMB4XDTE4MDYyNDA3NTkwM1oXDTE5MDYyNDA3NTkwM1owfTELMAkG
A1UEBhMCS1IxDjAMBgNVBAgMBVNlb3VsMQ4wDAYDVQQHDAVTZW91bDEMMAoGA1UE
CgwDU05VMQ4wDAYDVQQLDAVNTUxBQjEUMBIGA1UEAwwLbC5tYXRscy5jb20xGjAY
BgkqhkiG9w0BCQEWC2xAbWF0bHMuY29tMIIBIjANBgkqhkiG9w0BAQEFAAOCAQ8A
MIIBCgKCAQEA74qZBegcFcHwgqbeR3it/LBPY2KjKlsLcIlXCDYX8HJnOdpAt2ZQ
6AvlKheAAqysmYaFrigtxD+aenpshT6hGNEhr1uuhRrmjXqT/HJwxV4orrvs7KUW
x/jnmYmcli2C9fdjRWDe+9buU9rLlpMY1DSBt2XcO5PbYgekEZRHUvYTY0Y+G8Tr
axeoDEf9PPzmI0LFjKtMNEuRTlwW7TMmmpa+DkejL0IspoYijgdgGlGhQwjPnpTn
MNTQbWorJlx+DY5YlMgZztHfiGaNrSeNZ03MVtmDUl5PP68i43hjxk61a7DrmDwB
x48sggv4jsusrFh0fdnpG/Votv1BTeCvTwIDAQABozIwMDAJBgNVHRMEAjAAMAsG
A1UdDwQEAwIF4DAWBgNVHREEDzANggsqLm1hdGxzLmNvbTANBgkqhkiG9w0BAQsF
AAOCAQEAKWQPdaDdRi2r9JEjcgepU8UvrxDRzWUUXYEAOA+TD2cJN0NXjmgKYsqT
Ra5Q0u8IqFzHRsUcblhj/boPWTRqYD4UcTjeFfC/TF7miUTKH4ud8/uugS17MDN8
VuNeyMcIdnnfd8qgF/NmKuhq5xB4HRQfzwtc8k15/+ufupTZKVzp8K6PVwx1I5zl
GNVpohFUc0A4Ehqdo1JjCey/3WSK7P+P1rVqWBKqucmHSK0Fz/go7+5YOPW7krCS
4C39W7zREf0qD86JIaZRTLFdDyf04siXpp7et0/tsX3SKJCVDztJZUkaEgRojond
O5a18ZuU0QYLiffAouS4ab9+Jph8pg==
-----END CERTIFICATE-----
