Certificate:
    Data:
        Version: 3 (0x2)
        Serial Number:
            d9:29:cb:9b:45:a3:bb:a1
    Signature Algorithm: sha256WithRSAEncryption
        Issuer: C=US, ST=California, L=California, O=Alice CA Ltd., OU=Alice CA Ltd., CN=Alice CA Ltd./emailAddress=ca@ca_alice.com
        Validity
            Not Before: Jun 24 07:59:09 2018 GMT
            Not After : Jun 24 07:59:09 2019 GMT
        Subject: C=KR, ST=Seoul, L=Seoul, O=SNU, OU=MMLAB, CN=m.matls.com/emailAddress=m@matls.com
        Subject Public Key Info:
            Public Key Algorithm: rsaEncryption
                Public-Key: (2048 bit)
                Modulus:
                    00:e4:be:14:a7:70:22:20:91:ad:68:f7:91:b0:9f:
                    11:e7:d8:50:11:a3:2c:c5:c6:19:4c:d1:66:c2:18:
                    b0:53:ba:03:a7:77:49:b1:3e:f5:d9:6d:18:a1:f5:
                    51:ff:86:31:32:07:93:f4:83:ee:83:6f:e6:18:10:
                    60:df:33:32:d6:69:eb:4d:70:53:b1:70:2f:83:d1:
                    22:e9:69:fe:3b:fc:4a:e0:a4:20:8d:dd:61:6d:ad:
                    31:83:2a:ad:ea:25:fe:3b:63:09:df:e7:4f:1f:6e:
                    4f:c2:b9:75:39:b8:fb:b9:20:ee:66:e5:ba:ca:e1:
                    c8:68:96:83:c0:67:b1:75:ba:da:a7:a5:83:a4:de:
                    28:17:6f:95:39:52:f7:24:57:e0:1e:55:d4:6a:30:
                    1f:02:3e:ad:e0:e7:c6:2c:17:9b:ef:1e:90:ea:d8:
                    d7:8c:c4:54:f2:9a:96:ad:6e:62:df:2e:15:b8:a6:
                    1b:eb:84:e2:a9:37:51:28:ff:a0:ba:f7:3d:32:bd:
                    d8:07:de:94:ed:ee:8a:33:ae:4e:80:1a:32:c5:c3:
                    d8:30:23:6e:0a:0a:3d:53:43:cb:59:d6:da:84:d3:
                    30:c7:dd:c7:e0:bf:e7:79:42:c1:af:68:d2:c9:72:
                    49:44:ed:91:eb:7a:39:75:cf:89:8d:dd:2c:9f:dd:
                    30:7f
                Exponent: 65537 (0x10001)
        X509v3 extensions:
            X509v3 Basic Constraints: 
                CA:FALSE
            X509v3 Key Usage: 
                Digital Signature, Non Repudiation, Key Encipherment
            X509v3 Subject Alternative Name: 
                DNS:*.matls.com
    Signature Algorithm: sha256WithRSAEncryption
         73:63:32:49:1b:6a:e6:69:4d:13:e5:39:93:53:9a:bd:fa:00:
         e5:2a:e5:1b:c1:4d:ce:8b:43:77:b6:19:e1:df:38:d9:8c:3f:
         85:96:44:c4:df:76:a9:c4:d9:30:a5:4c:ab:1c:69:78:20:bb:
         5f:9f:35:f0:fc:dc:9b:f7:94:49:ec:86:64:bb:b8:9c:06:af:
         6a:fb:a4:e9:a8:94:ce:84:c1:23:8e:45:b4:f7:fc:7b:c4:02:
         34:42:09:5d:42:6a:23:83:94:bb:a0:eb:1f:89:12:e9:d5:6d:
         2a:59:a1:67:3e:7f:18:6e:a0:2f:bc:37:7d:b0:3b:26:14:f5:
         4c:e3:06:9b:0a:f9:31:43:0a:f3:75:ce:cd:fa:31:c3:f1:03:
         9f:f2:e4:93:e8:ab:e9:10:2f:7a:0e:c3:46:6a:7e:25:fd:1d:
         4f:9f:f4:37:42:a5:bc:f4:c4:6b:dd:7e:67:52:82:f5:64:19:
         a2:d8:e3:4b:6b:d8:8d:d6:6c:68:71:05:c2:9e:bd:4b:a7:47:
         9a:7a:1a:8c:1d:df:5d:f4:fb:79:b7:3d:2f:07:9e:79:45:00:
         5e:ce:84:c9:d3:ec:62:f2:7f:a8:d8:a8:e6:0f:a5:51:e0:b5:
         21:21:97:18:eb:1f:50:63:e9:a3:e9:59:e8:6a:01:6a:44:8f:
         3a:81:e5:3a
-----BEGIN CERTIFICATE-----
MIID0jCCArqgAwIBAgIJANkpy5tFo7uhMA0GCSqGSIb3DQEBCwUAMIGfMQswCQYD
VQQGEwJVUzETMBEGA1UECAwKQ2FsaWZvcm5pYTETMBEGA1UEBwwKQ2FsaWZvcm5p
YTEWMBQGA1UECgwNQWxpY2UgQ0EgTHRkLjEWMBQGA1UECwwNQWxpY2UgQ0EgTHRk
LjEWMBQGA1UEAwwNQWxpY2UgQ0EgTHRkLjEeMBwGCSqGSIb3DQEJARYPY2FAY2Ff
YWxpY2UuY29tMB4XDTE4MDYyNDA3NTkwOVoXDTE5MDYyNDA3NTkwOVowfTELMAkG
A1UEBhMCS1IxDjAMBgNVBAgMBVNlb3VsMQ4wDAYDVQQHDAVTZW91bDEMMAoGA1UE
CgwDU05VMQ4wDAYDVQQLDAVNTUxBQjEUMBIGA1UEAwwLbS5tYXRscy5jb20xGjAY
BgkqhkiG9w0BCQEWC21AbWF0bHMuY29tMIIBIjANBgkqhkiG9w0BAQEFAAOCAQ8A
MIIBCgKCAQEA5L4Up3AiIJGtaPeRsJ8R59hQEaMsxcYZTNFmwhiwU7oDp3dJsT71
2W0YofVR/4YxMgeT9IPug2/mGBBg3zMy1mnrTXBTsXAvg9Ei6Wn+O/xK4KQgjd1h
ba0xgyqt6iX+O2MJ3+dPH25Pwrl1Obj7uSDuZuW6yuHIaJaDwGexdbrap6WDpN4o
F2+VOVL3JFfgHlXUajAfAj6t4OfGLBeb7x6Q6tjXjMRU8pqWrW5i3y4VuKYb64Ti
qTdRKP+guvc9Mr3YB96U7e6KM65OgBoyxcPYMCNuCgo9U0PLWdbahNMwx93H4L/n
eULBr2jSyXJJRO2R63o5dc+Jjd0sn90wfwIDAQABozIwMDAJBgNVHRMEAjAAMAsG
A1UdDwQEAwIF4DAWBgNVHREEDzANggsqLm1hdGxzLmNvbTANBgkqhkiG9w0BAQsF
AAOCAQEAc2MySRtq5mlNE+U5k1OavfoA5SrlG8FNzotDd7YZ4d842Yw/hZZExN92
qcTZMKVMqxxpeCC7X5818Pzcm/eUSeyGZLu4nAavavuk6aiUzoTBI45FtPf8e8QC
NEIJXUJqI4OUu6DrH4kS6dVtKlmhZz5/GG6gL7w3fbA7JhT1TOMGmwr5MUMK83XO
zfoxw/EDn/Lkk+ir6RAveg7DRmp+Jf0dT5/0N0KlvPTEa91+Z1KC9WQZotjjS2vY
jdZsaHEFwp69S6dHmnoajB3fXfT7ebc9LweeeUUAXs6EydPsYvJ/qNio5g+lUeC1
ISGXGOsfUGPpo+lZ6GoBakSPOoHlOg==
-----END CERTIFICATE-----
