Certificate:
    Data:
        Version: 3 (0x2)
        Serial Number:
            d9:29:cb:9b:45:a3:bb:a2
    Signature Algorithm: sha256WithRSAEncryption
        Issuer: C=US, ST=California, L=California, O=Alice CA Ltd., OU=Alice CA Ltd., CN=Alice CA Ltd./emailAddress=ca@ca_alice.com
        Validity
            Not Before: Jun 24 07:59:15 2018 GMT
            Not After : Jun 24 07:59:15 2019 GMT
        Subject: C=KR, ST=Seoul, L=Seoul, O=SNU, OU=MMLAB, CN=n.matls.com/emailAddress=n@matls.com
        Subject Public Key Info:
            Public Key Algorithm: rsaEncryption
                Public-Key: (2048 bit)
                Modulus:
                    00:c6:fa:89:d8:9d:fc:c0:1b:cf:18:9c:52:cb:a3:
                    16:98:49:92:ad:38:8c:79:c4:7c:31:49:e1:e2:03:
                    0d:dd:ee:42:88:59:57:f7:8c:c2:87:5c:39:d9:dd:
                    fa:b5:9d:14:aa:b3:7d:ef:04:d0:0a:70:33:d9:b8:
                    bb:88:f2:d7:e9:55:15:16:22:15:b2:bc:8b:89:dd:
                    67:2e:ff:45:b3:aa:e3:28:75:41:26:d0:df:fd:da:
                    11:c8:be:91:17:b1:a3:f6:10:4b:4d:e6:b5:5a:0f:
                    43:3c:93:bc:c2:33:1b:fe:df:1d:14:62:7d:13:3c:
                    71:af:c3:16:a2:23:6f:e9:8f:3f:94:7a:bb:b8:34:
                    78:a7:79:b8:8c:96:25:fd:6c:3b:ff:c1:45:bc:25:
                    81:63:c6:bf:a8:b8:e8:ae:62:5e:fb:0d:67:d2:c6:
                    b6:23:af:de:04:60:37:80:f4:c3:e8:ba:80:61:f7:
                    9e:ef:3b:42:bd:a2:9f:28:99:c6:02:dc:51:8c:06:
                    33:d8:b3:1a:7f:48:45:1f:e6:00:08:bf:fd:fe:72:
                    55:01:6e:c1:86:51:9d:70:aa:36:8c:07:3a:6d:3e:
                    9f:a6:db:21:db:ce:9e:ea:03:45:d6:ed:de:ed:77:
                    3b:88:37:01:1f:66:8e:c9:6a:c6:86:f2:ae:61:27:
                    6d:dd
                Exponent: 65537 (0x10001)
        X509v3 extensions:
            X509v3 Basic Constraints: 
                CA:FALSE
            X509v3 Key Usage: 
                Digital Signature, Non Repudiation, Key Encipherment
            X509v3 Subject Alternative Name: 
                DNS:*.matls.com
    Signature Algorithm: sha256WithRSAEncryption
         7a:97:9b:1f:32:20:1b:33:c3:d3:8c:d5:51:21:a7:1b:be:cc:
         70:34:f5:47:26:9d:f8:6a:f3:ec:c8:d3:c6:72:71:e6:da:c8:
         ad:6e:79:07:02:c8:91:f1:d0:d4:30:d7:f6:6d:44:9f:03:ed:
         10:1f:5d:bf:b2:c9:2f:48:f3:3e:15:5c:f6:7b:99:09:00:79:
         23:27:08:05:77:47:bd:8b:4e:95:31:19:dc:9d:99:8d:0f:e3:
         48:05:23:e4:63:f3:78:57:75:0d:b4:17:18:3f:16:dc:ed:7b:
         70:03:2b:b8:76:94:6b:1c:51:72:65:3e:9f:50:78:94:47:51:
         fe:50:5b:96:56:2f:5f:e8:4c:82:28:ec:86:bb:89:1b:a5:0f:
         99:4a:30:45:cd:2d:5f:59:6e:17:cf:dd:86:a9:4b:f6:62:56:
         e0:71:96:7b:1f:3b:a8:af:22:f0:7f:1e:a4:9c:08:05:a4:af:
         44:93:07:ee:a2:b5:70:75:cd:8f:aa:3b:0b:6f:7e:e1:3c:c5:
         12:f1:ee:cf:40:17:ff:2c:6d:ba:07:a3:7f:0a:4a:74:ab:75:
         22:30:a6:4d:aa:b2:59:1a:20:5d:68:03:5e:d7:c7:02:1c:b4:
         22:ae:b5:c7:96:be:d5:6e:5e:95:0f:ea:5c:5e:79:c6:e8:80:
         68:74:f2:4e
-----BEGIN CERTIFICATE-----
MIID0jCCArqgAwIBAgIJANkpy5tFo7uiMA0GCSqGSIb3DQEBCwUAMIGfMQswCQYD
VQQGEwJVUzETMBEGA1UECAwKQ2FsaWZvcm5pYTETMBEGA1UEBwwKQ2FsaWZvcm5p
YTEWMBQGA1UECgwNQWxpY2UgQ0EgTHRkLjEWMBQGA1UECwwNQWxpY2UgQ0EgTHRk
LjEWMBQGA1UEAwwNQWxpY2UgQ0EgTHRkLjEeMBwGCSqGSIb3DQEJARYPY2FAY2Ff
YWxpY2UuY29tMB4XDTE4MDYyNDA3NTkxNVoXDTE5MDYyNDA3NTkxNVowfTELMAkG
A1UEBhMCS1IxDjAMBgNVBAgMBVNlb3VsMQ4wDAYDVQQHDAVTZW91bDEMMAoGA1UE
CgwDU05VMQ4wDAYDVQQLDAVNTUxBQjEUMBIGA1UEAwwLbi5tYXRscy5jb20xGjAY
BgkqhkiG9w0BCQEWC25AbWF0bHMuY29tMIIBIjANBgkqhkiG9w0BAQEFAAOCAQ8A
MIIBCgKCAQEAxvqJ2J38wBvPGJxSy6MWmEmSrTiMecR8MUnh4gMN3e5CiFlX94zC
h1w52d36tZ0UqrN97wTQCnAz2bi7iPLX6VUVFiIVsryLid1nLv9Fs6rjKHVBJtDf
/doRyL6RF7Gj9hBLTea1Wg9DPJO8wjMb/t8dFGJ9Ezxxr8MWoiNv6Y8/lHq7uDR4
p3m4jJYl/Ww7/8FFvCWBY8a/qLjormJe+w1n0sa2I6/eBGA3gPTD6LqAYfee7ztC
vaKfKJnGAtxRjAYz2LMaf0hFH+YACL/9/nJVAW7BhlGdcKo2jAc6bT6fptsh286e
6gNF1u3e7Xc7iDcBH2aOyWrGhvKuYSdt3QIDAQABozIwMDAJBgNVHRMEAjAAMAsG
A1UdDwQEAwIF4DAWBgNVHREEDzANggsqLm1hdGxzLmNvbTANBgkqhkiG9w0BAQsF
AAOCAQEAepebHzIgGzPD04zVUSGnG77McDT1Ryad+Grz7MjTxnJx5trIrW55BwLI
kfHQ1DDX9m1EnwPtEB9dv7LJL0jzPhVc9nuZCQB5IycIBXdHvYtOlTEZ3J2ZjQ/j
SAUj5GPzeFd1DbQXGD8W3O17cAMruHaUaxxRcmU+n1B4lEdR/lBbllYvX+hMgijs
hruJG6UPmUowRc0tX1luF8/dhqlL9mJW4HGWex87qK8i8H8epJwIBaSvRJMH7qK1
cHXNj6o7C29+4TzFEvHuz0AX/yxtugejfwpKdKt1IjCmTaqyWRogXWgDXtfHAhy0
Iq61x5a+1W5elQ/qXF55xuiAaHTyTg==
-----END CERTIFICATE-----
