Certificate:
    Data:
        Version: 3 (0x2)
        Serial Number:
            d9:29:cb:9b:45:a3:bb:a3
    Signature Algorithm: sha256WithRSAEncryption
        Issuer: C=US, ST=California, L=California, O=Alice CA Ltd., OU=Alice CA Ltd., CN=Alice CA Ltd./emailAddress=ca@ca_alice.com
        Validity
            Not Before: Jun 24 07:59:22 2018 GMT
            Not After : Jun 24 07:59:22 2019 GMT
        Subject: C=KR, ST=Seoul, L=Seoul, O=SNU, OU=MMLAB, CN=o.matls.com/emailAddress=o@matls.com
        Subject Public Key Info:
            Public Key Algorithm: rsaEncryption
                Public-Key: (2048 bit)
                Modulus:
                    00:d8:e2:b4:cc:9c:71:da:2f:ab:fc:c3:f8:7f:e3:
                    a0:5d:69:8c:96:14:32:5c:d2:35:24:9a:13:1d:69:
                    5c:b6:20:9b:d6:af:e3:de:60:50:5a:57:a3:ff:94:
                    25:fd:0d:22:bc:e9:74:6a:c0:3b:92:92:24:92:10:
                    ee:7f:9a:f4:68:2d:32:69:c1:56:7b:96:94:77:9a:
                    4a:65:89:c8:7c:32:4c:ab:2d:4c:53:56:a8:e0:dc:
                    26:ce:dc:e6:93:0c:16:34:0c:6e:0d:92:80:96:5f:
                    45:37:48:71:c7:c6:d6:06:1d:44:1f:d3:9b:02:39:
                    90:45:ce:60:bb:a3:67:99:f1:a1:2c:37:66:76:50:
                    0b:47:80:cb:e3:07:4e:07:58:c3:90:25:b1:47:b7:
                    76:60:76:50:b5:d1:55:d3:ce:7c:5d:32:87:1d:dc:
                    4a:04:22:37:ce:59:40:c7:c7:80:29:b8:95:d9:1b:
                    5d:06:e4:dc:1e:57:5e:91:9f:31:a8:be:cb:dd:55:
                    98:e8:3e:31:2f:7a:7d:b2:58:7a:57:fa:78:af:52:
                    8d:27:67:66:a0:fe:5e:87:64:7a:f8:5e:b7:d0:64:
                    62:9f:be:cf:2f:b4:17:aa:eb:c3:52:9d:a3:f0:01:
                    b3:f9:11:b1:af:7c:0a:6c:4d:d4:f9:16:1f:37:28:
                    f5:6f
                Exponent: 65537 (0x10001)
        X509v3 extensions:
            X509v3 Basic Constraints: 
                CA:FALSE
            X509v3 Key Usage: 
                Digital Signature, Non Repudiation, Key Encipherment
            X509v3 Subject Alternative Name: 
                DNS:*.matls.com
    Signature Algorithm: sha256WithRSAEncryption
         91:df:ea:db:db:09:cd:8c:f2:66:ea:4b:56:cf:a8:9a:b5:6f:
         45:1d:c3:03:22:ae:ad:12:46:eb:a8:76:93:e0:6f:cb:34:1f:
         91:6a:9e:17:48:21:43:f0:df:02:dc:71:44:e7:a9:38:e7:cd:
         5f:b4:17:ce:bf:25:5a:46:b7:de:0b:b1:ce:8f:8c:2e:dc:b0:
         ab:e6:ef:a6:26:9c:10:5f:ba:64:e7:60:c2:54:4a:50:6d:6d:
         43:4a:e4:a1:20:78:02:55:a2:ca:70:47:e3:50:79:ae:73:cb:
         02:d4:53:3e:93:a6:fb:6f:88:d4:37:85:53:65:82:93:8b:a6:
         6b:25:8b:3d:b8:1f:a1:06:ff:c2:52:71:0c:33:d7:41:25:4e:
         ca:e8:76:20:b9:38:bd:f1:ff:f4:78:24:08:8d:d8:67:46:df:
         23:e7:89:df:4d:1f:06:13:98:f8:6c:55:e5:e0:51:db:a5:ef:
         03:26:73:35:bd:1e:ec:65:d7:11:4b:94:f3:21:b9:90:bf:67:
         95:9a:61:a0:c8:29:49:b1:23:8d:9a:44:c7:f0:dc:de:c5:da:
         68:e6:33:a0:29:ea:f5:9a:d3:1a:32:55:c0:42:d7:d7:48:22:
         77:c1:a4:68:18:a0:6e:3c:56:fe:da:7e:cb:9a:57:83:b0:6d:
         df:0d:a6:aa
-----BEGIN CERTIFICATE-----
MIID0jCCArqgAwIBAgIJANkpy5tFo7ujMA0GCSqGSIb3DQEBCwUAMIGfMQswCQYD
VQQGEwJVUzETMBEGA1UECAwKQ2FsaWZvcm5pYTETMBEGA1UEBwwKQ2FsaWZvcm5p
YTEWMBQGA1UECgwNQWxpY2UgQ0EgTHRkLjEWMBQGA1UECwwNQWxpY2UgQ0EgTHRk
LjEWMBQGA1UEAwwNQWxpY2UgQ0EgTHRkLjEeMBwGCSqGSIb3DQEJARYPY2FAY2Ff
YWxpY2UuY29tMB4XDTE4MDYyNDA3NTkyMloXDTE5MDYyNDA3NTkyMlowfTELMAkG
A1UEBhMCS1IxDjAMBgNVBAgMBVNlb3VsMQ4wDAYDVQQHDAVTZW91bDEMMAoGA1UE
CgwDU05VMQ4wDAYDVQQLDAVNTUxBQjEUMBIGA1UEAwwLby5tYXRscy5jb20xGjAY
BgkqhkiG9w0BCQEWC29AbWF0bHMuY29tMIIBIjANBgkqhkiG9w0BAQEFAAOCAQ8A
MIIBCgKCAQEA2OK0zJxx2i+r/MP4f+OgXWmMlhQyXNI1JJoTHWlctiCb1q/j3mBQ
Wlej/5Ql/Q0ivOl0asA7kpIkkhDuf5r0aC0yacFWe5aUd5pKZYnIfDJMqy1MU1ao
4NwmztzmkwwWNAxuDZKAll9FN0hxx8bWBh1EH9ObAjmQRc5gu6NnmfGhLDdmdlAL
R4DL4wdOB1jDkCWxR7d2YHZQtdFV0858XTKHHdxKBCI3zllAx8eAKbiV2RtdBuTc
HldekZ8xqL7L3VWY6D4xL3p9slh6V/p4r1KNJ2dmoP5eh2R6+F630GRin77PL7QX
quvDUp2j8AGz+RGxr3wKbE3U+RYfNyj1bwIDAQABozIwMDAJBgNVHRMEAjAAMAsG
A1UdDwQEAwIF4DAWBgNVHREEDzANggsqLm1hdGxzLmNvbTANBgkqhkiG9w0BAQsF
AAOCAQEAkd/q29sJzYzyZupLVs+omrVvRR3DAyKurRJG66h2k+BvyzQfkWqeF0gh
Q/DfAtxxROepOOfNX7QXzr8lWka33guxzo+MLtywq+bvpiacEF+6ZOdgwlRKUG1t
Q0rkoSB4AlWiynBH41B5rnPLAtRTPpOm+2+I1DeFU2WCk4umayWLPbgfoQb/wlJx
DDPXQSVOyuh2ILk4vfH/9HgkCI3YZ0bfI+eJ300fBhOY+GxV5eBR26XvAyZzNb0e
7GXXEUuU8yG5kL9nlZphoMgpSbEjjZpEx/Dc3sXaaOYzoCnq9ZrTGjJVwELX10gi
d8GkaBigbjxW/tp+y5pXg7Bt3w2mqg==
-----END CERTIFICATE-----
