Certificate:
    Data:
        Version: 3 (0x2)
        Serial Number:
            d9:29:cb:9b:45:a3:bb:a4
    Signature Algorithm: sha256WithRSAEncryption
        Issuer: C=US, ST=California, L=California, O=Alice CA Ltd., OU=Alice CA Ltd., CN=Alice CA Ltd./emailAddress=ca@ca_alice.com
        Validity
            Not Before: Jun 24 07:59:28 2018 GMT
            Not After : Jun 24 07:59:28 2019 GMT
        Subject: C=KR, ST=Seoul, L=Seoul, O=SNU, OU=MMLAB, CN=p.matls.com/emailAddress=p@matls.com
        Subject Public Key Info:
            Public Key Algorithm: rsaEncryption
                Public-Key: (2048 bit)
                Modulus:
                    00:9c:6c:ac:82:60:ba:2a:9f:fb:d5:34:7d:dc:60:
                    5d:fb:07:2d:dd:7d:3e:38:fb:38:fb:9f:87:33:e4:
                    89:9a:72:e2:10:7d:a8:05:b6:de:e8:c1:3b:e1:9f:
                    8d:f0:33:4b:39:79:83:b4:0a:e3:65:b6:d6:7a:65:
                    18:bc:a9:e2:5a:9f:11:89:63:c0:bf:61:51:91:42:
                    61:a4:88:93:55:e4:7d:50:36:d4:b6:30:bd:98:73:
                    7c:cd:d3:91:24:1e:78:36:cb:df:ee:8f:89:06:18:
                    f0:31:b6:1f:4e:0d:dd:a5:90:e6:e3:01:45:3b:f8:
                    be:bb:27:3b:3d:ab:54:31:bd:c8:f9:fb:7f:c6:3e:
                    3b:0b:ca:4a:5a:10:dc:c2:66:05:ea:45:87:6c:8a:
                    22:03:ec:8a:da:2d:39:5c:d3:1e:97:f4:4f:e4:28:
                    5d:29:fc:88:35:9a:35:2c:36:f5:74:e9:6e:49:bd:
                    90:3b:46:d4:09:15:83:c6:bf:d8:f6:90:f2:0b:15:
                    49:e0:9a:52:99:c5:cd:bb:65:d6:3d:aa:3f:52:db:
                    b4:15:c6:c9:a9:bf:44:40:0b:2f:9f:13:0f:bf:3e:
                    77:ee:75:12:0a:af:c8:94:06:33:68:1f:46:d8:8c:
                    9a:77:dd:8b:2a:52:e3:01:8a:f0:dc:ef:d0:19:f1:
                    3f:83
                Exponent: 65537 (0x10001)
        X509v3 extensions:
            X509v3 Basic Constraints: 
                CA:FALSE
            X509v3 Key Usage: 
                Digital Signature, Non Repudiation, Key Encipherment
            X509v3 Subject Alternative Name: 
                DNS:*.matls.com
    Signature Algorithm: sha256WithRSAEncryption
         6a:20:21:09:ef:66:b9:6b:37:b5:6a:89:60:1c:bc:29:53:46:
         0a:6b:c7:d6:24:7d:0f:4f:aa:53:c0:e8:4f:b2:98:e5:8b:8b:
         16:5d:a1:9a:1f:8c:57:d5:86:0e:93:80:59:5e:7b:62:c3:54:
         87:c6:29:df:cc:97:c9:c2:4d:6d:a6:85:be:ed:05:40:10:45:
         88:e5:57:e7:af:bf:f3:93:8d:d3:61:ce:98:1e:4b:a9:16:af:
         c0:05:d5:7b:db:5e:42:91:92:c8:55:f5:4c:85:57:b0:a2:ab:
         03:66:fb:e9:c4:5f:e6:ad:84:db:60:f0:cc:bd:30:35:88:aa:
         45:54:b0:f3:6b:72:bd:7a:0e:c2:a8:02:a0:cb:64:53:97:a9:
         73:eb:3b:a3:5d:d0:10:2b:4a:4e:be:72:6a:9c:20:f0:cf:57:
         8c:ef:63:a1:96:0d:a2:ee:d5:34:d6:21:db:95:a2:38:7e:3e:
         e6:60:75:82:e1:36:1c:36:8e:dc:ac:8a:43:47:7b:d5:d8:ec:
         0f:53:49:dd:2d:1c:c3:ca:11:a8:53:b0:31:c4:1b:4f:25:aa:
         3f:90:bd:5c:46:b4:2a:6e:48:29:a9:96:94:58:00:50:e5:c9:
         2e:6c:7d:72:4b:90:5a:0e:6f:8f:50:45:04:0f:d2:58:af:28:
         02:89:b9:fb
-----BEGIN CERTIFICATE-----
MIID0jCCArqgAwIBAgIJANkpy5tFo7ukMA0GCSqGSIb3DQEBCwUAMIGfMQswCQYD
VQQGEwJVUzETMBEGA1UECAwKQ2FsaWZvcm5pYTETMBEGA1UEBwwKQ2FsaWZvcm5p
YTEWMBQGA1UECgwNQWxpY2UgQ0EgTHRkLjEWMBQGA1UECwwNQWxpY2UgQ0EgTHRk
LjEWMBQGA1UEAwwNQWxpY2UgQ0EgTHRkLjEeMBwGCSqGSIb3DQEJARYPY2FAY2Ff
YWxpY2UuY29tMB4XDTE4MDYyNDA3NTkyOFoXDTE5MDYyNDA3NTkyOFowfTELMAkG
A1UEBhMCS1IxDjAMBgNVBAgMBVNlb3VsMQ4wDAYDVQQHDAVTZW91bDEMMAoGA1UE
CgwDU05VMQ4wDAYDVQQLDAVNTUxBQjEUMBIGA1UEAwwLcC5tYXRscy5jb20xGjAY
BgkqhkiG9w0BCQEWC3BAbWF0bHMuY29tMIIBIjANBgkqhkiG9w0BAQEFAAOCAQ8A
MIIBCgKCAQEAnGysgmC6Kp/71TR93GBd+wct3X0+OPs4+5+HM+SJmnLiEH2oBbbe
6ME74Z+N8DNLOXmDtArjZbbWemUYvKniWp8RiWPAv2FRkUJhpIiTVeR9UDbUtjC9
mHN8zdORJB54Nsvf7o+JBhjwMbYfTg3dpZDm4wFFO/i+uyc7PatUMb3I+ft/xj47
C8pKWhDcwmYF6kWHbIoiA+yK2i05XNMel/RP5ChdKfyINZo1LDb1dOluSb2QO0bU
CRWDxr/Y9pDyCxVJ4JpSmcXNu2XWPao/Utu0FcbJqb9EQAsvnxMPvz537nUSCq/I
lAYzaB9G2Iyad92LKlLjAYrw3O/QGfE/gwIDAQABozIwMDAJBgNVHRMEAjAAMAsG
A1UdDwQEAwIF4DAWBgNVHREEDzANggsqLm1hdGxzLmNvbTANBgkqhkiG9w0BAQsF
AAOCAQEAaiAhCe9muWs3tWqJYBy8KVNGCmvH1iR9D0+qU8DoT7KY5YuLFl2hmh+M
V9WGDpOAWV57YsNUh8Yp38yXycJNbaaFvu0FQBBFiOVX56+/85ON02HOmB5LqRav
wAXVe9teQpGSyFX1TIVXsKKrA2b76cRf5q2E22DwzL0wNYiqRVSw82tyvXoOwqgC
oMtkU5epc+s7o13QECtKTr5yapwg8M9XjO9joZYNou7VNNYh25WiOH4+5mB1guE2
HDaO3KyKQ0d71djsD1NJ3S0cw8oRqFOwMcQbTyWqP5C9XEa0Km5IKamWlFgAUOXJ
Lmx9ckuQWg5vj1BFBA/SWK8oAom5+w==
-----END CERTIFICATE-----
