Certificate:
    Data:
        Version: 3 (0x2)
        Serial Number:
            d9:29:cb:9b:45:a3:bb:97
    Signature Algorithm: sha256WithRSAEncryption
        Issuer: C=US, ST=California, L=California, O=Alice CA Ltd., OU=Alice CA Ltd., CN=Alice CA Ltd./emailAddress=ca@ca_alice.com
        Validity
            Not Before: Jun 24 07:50:40 2018 GMT
            Not After : Jun 24 07:50:40 2019 GMT
        Subject: C=KR, ST=Seoul, L=Seoul, O=SNU, OU=MMLAB, CN=c.matls.com/emailAddress=c@matls.com
        Subject Public Key Info:
            Public Key Algorithm: rsaEncryption
                Public-Key: (2048 bit)
                Modulus:
                    00:9b:3a:ba:2a:29:54:9d:fd:2e:ee:85:2c:24:93:
                    1c:cb:1f:e8:b6:6d:0e:c2:52:66:5e:bb:ee:4d:f6:
                    02:d6:40:7e:2c:e9:99:c0:a6:f5:1e:72:dd:df:a0:
                    4e:02:f6:51:cf:1f:03:fb:41:b0:c1:d0:9f:ce:82:
                    f0:0e:e9:cb:1a:f1:ae:f0:d1:ab:df:07:b8:52:48:
                    2b:4c:8a:0d:bb:23:ef:a9:cc:49:b9:2c:bc:5b:b8:
                    db:b4:b5:21:df:66:5f:98:0d:6a:ed:df:90:4f:fa:
                    4a:b1:c9:b0:be:24:b4:92:64:0c:75:97:50:3e:4e:
                    dc:86:bc:7b:07:5b:ee:55:07:d0:46:22:34:67:2d:
                    80:cd:bb:b2:83:11:5c:b0:e4:79:2d:e4:77:5c:cf:
                    20:a5:ba:de:98:0e:05:1e:98:a8:43:33:c2:3c:62:
                    d8:73:d9:86:9b:5b:d3:42:f5:64:b7:9d:ce:05:f5:
                    52:60:05:99:cc:6b:bb:5b:26:33:26:53:08:a1:48:
                    52:3e:ed:e3:6d:3f:08:2e:41:2f:0e:a0:4d:f5:1d:
                    db:f8:4f:30:c7:37:78:1b:e8:0e:cb:1b:7f:70:81:
                    59:7a:cc:1d:00:c3:a0:bf:1a:00:17:50:e0:ef:c0:
                    97:7f:0f:af:25:2e:6c:b8:23:52:f1:60:c3:28:f1:
                    c6:f7
                Exponent: 65537 (0x10001)
        X509v3 extensions:
            X509v3 Basic Constraints: 
                CA:FALSE
            X509v3 Key Usage: 
                Digital Signature, Non Repudiation, Key Encipherment
            X509v3 Subject Alternative Name: 
                DNS:*.matls.com
    Signature Algorithm: sha256WithRSAEncryption
         38:32:34:95:e9:79:40:28:49:93:9f:42:44:4f:25:98:0f:3b:
         c8:ba:b7:3a:70:9a:31:1e:41:3e:7c:7c:5a:a0:c1:39:1f:24:
         c3:5e:9d:e7:12:1b:2a:3f:6f:d0:c7:ee:64:f8:2d:8d:cf:91:
         e9:e7:98:e5:d2:a7:e4:99:66:93:2f:a2:0a:c7:7d:3d:40:e8:
         80:2e:65:d9:96:11:eb:01:b6:be:89:f3:0b:92:48:b9:cf:28:
         89:4d:2a:80:65:8f:a5:78:a9:57:db:3a:22:53:4c:0d:da:47:
         50:c4:27:7f:77:a0:bb:84:5c:ac:79:74:ef:60:64:01:a7:a9:
         7a:a5:ca:03:24:1e:55:fc:d7:91:68:72:ae:52:94:c7:c7:9c:
         b8:ff:60:d9:52:18:11:10:49:b6:7e:be:f7:e3:84:e4:bd:f6:
         b5:52:7a:d4:f3:d0:01:ec:a6:fa:3f:d9:17:47:bd:3f:f6:87:
         23:ea:e3:fd:e9:ed:4d:9e:1e:64:6c:4c:b9:10:dc:85:cf:36:
         80:0d:d9:19:df:36:21:63:83:a9:4b:a1:d3:5b:18:44:13:0f:
         07:e0:7d:81:27:94:70:67:4b:e2:dc:16:a4:91:4b:20:c1:2a:
         bb:df:30:5e:32:b6:fd:dd:bd:9b:06:d5:e7:0e:ad:4b:fc:02:
         c9:86:5d:07
-----BEGIN CERTIFICATE-----
MIID0jCCArqgAwIBAgIJANkpy5tFo7uXMA0GCSqGSIb3DQEBCwUAMIGfMQswCQYD
VQQGEwJVUzETMBEGA1UECAwKQ2FsaWZvcm5pYTETMBEGA1UEBwwKQ2FsaWZvcm5p
YTEWMBQGA1UECgwNQWxpY2UgQ0EgTHRkLjEWMBQGA1UECwwNQWxpY2UgQ0EgTHRk
LjEWMBQGA1UEAwwNQWxpY2UgQ0EgTHRkLjEeMBwGCSqGSIb3DQEJARYPY2FAY2Ff
YWxpY2UuY29tMB4XDTE4MDYyNDA3NTA0MFoXDTE5MDYyNDA3NTA0MFowfTELMAkG
A1UEBhMCS1IxDjAMBgNVBAgMBVNlb3VsMQ4wDAYDVQQHDAVTZW91bDEMMAoGA1UE
CgwDU05VMQ4wDAYDVQQLDAVNTUxBQjEUMBIGA1UEAwwLYy5tYXRscy5jb20xGjAY
BgkqhkiG9w0BCQEWC2NAbWF0bHMuY29tMIIBIjANBgkqhkiG9w0BAQEFAAOCAQ8A
MIIBCgKCAQEAmzq6KilUnf0u7oUsJJMcyx/otm0OwlJmXrvuTfYC1kB+LOmZwKb1
HnLd36BOAvZRzx8D+0GwwdCfzoLwDunLGvGu8NGr3we4UkgrTIoNuyPvqcxJuSy8
W7jbtLUh32ZfmA1q7d+QT/pKscmwviS0kmQMdZdQPk7chrx7B1vuVQfQRiI0Zy2A
zbuygxFcsOR5LeR3XM8gpbremA4FHpioQzPCPGLYc9mGm1vTQvVkt53OBfVSYAWZ
zGu7WyYzJlMIoUhSPu3jbT8ILkEvDqBN9R3b+E8wxzd4G+gOyxt/cIFZeswdAMOg
vxoAF1Dg78CXfw+vJS5suCNS8WDDKPHG9wIDAQABozIwMDAJBgNVHRMEAjAAMAsG
A1UdDwQEAwIF4DAWBgNVHREEDzANggsqLm1hdGxzLmNvbTANBgkqhkiG9w0BAQsF
AAOCAQEAODI0lel5QChJk59CRE8lmA87yLq3OnCaMR5BPnx8WqDBOR8kw16d5xIb
Kj9v0MfuZPgtjc+R6eeY5dKn5Jlmky+iCsd9PUDogC5l2ZYR6wG2vonzC5JIuc8o
iU0qgGWPpXipV9s6IlNMDdpHUMQnf3egu4RcrHl072BkAaepeqXKAyQeVfzXkWhy
rlKUx8ecuP9g2VIYERBJtn6+9+OE5L32tVJ61PPQAeym+j/ZF0e9P/aHI+rj/ent
TZ4eZGxMuRDchc82gA3ZGd82IWODqUuh01sYRBMPB+B9gSeUcGdL4twWpJFLIMEq
u98wXjK2/d29mwbV5w6tS/wCyYZdBw==
-----END CERTIFICATE-----
