Certificate:
    Data:
        Version: 3 (0x2)
        Serial Number:
            d9:29:cb:9b:45:a3:bb:98
    Signature Algorithm: sha256WithRSAEncryption
        Issuer: C=US, ST=California, L=California, O=Alice CA Ltd., OU=Alice CA Ltd., CN=Alice CA Ltd./emailAddress=ca@ca_alice.com
        Validity
            Not Before: Jun 24 07:50:48 2018 GMT
            Not After : Jun 24 07:50:48 2019 GMT
        Subject: C=KR, ST=Seoul, L=Seoul, O=SNU, OU=MMLAB, CN=d.matls.com/emailAddress=d@matls.com
        Subject Public Key Info:
            Public Key Algorithm: rsaEncryption
                Public-Key: (2048 bit)
                Modulus:
                    00:c3:df:86:0c:2a:d0:b1:90:8a:a1:2e:5a:a4:df:
                    bb:5d:46:60:4d:7f:15:41:7b:66:d2:3b:51:52:d2:
                    64:b1:12:68:35:58:53:0b:c1:21:04:3d:ba:9e:94:
                    ae:75:0e:cf:52:52:7b:b4:19:81:01:3a:ad:9a:ed:
                    2b:fd:eb:18:c5:68:0b:45:12:96:f8:37:d8:92:74:
                    85:2f:3b:f2:4a:01:bb:5c:5c:e4:a0:c9:1b:c0:aa:
                    be:f0:bb:66:1a:9f:d6:4b:ad:8d:91:a0:f8:5e:60:
                    a0:ff:54:a5:98:2a:39:86:ce:ae:f8:eb:5e:ed:64:
                    f4:c8:78:7c:6a:02:86:1a:51:fe:b7:02:b4:f5:9b:
                    cf:c5:61:bd:33:94:31:f3:df:85:ff:86:18:92:7a:
                    cc:23:1b:0c:1f:6d:53:96:e6:9b:a4:ee:0f:2b:2b:
                    25:d7:c4:ac:a8:ab:ad:a1:da:58:eb:84:96:18:87:
                    5d:40:5d:5c:8b:57:9f:f4:f3:ac:c4:bd:4c:8e:83:
                    6b:d8:33:e7:c0:7f:10:a6:30:cd:7e:a7:f0:03:38:
                    92:5d:14:8a:d7:64:66:e5:9f:69:17:91:43:0e:d4:
                    1c:90:7d:a3:58:54:de:de:35:4e:9a:40:d0:f9:f9:
                    89:f4:f7:45:8a:01:d7:e5:ac:24:17:ef:64:a9:b3:
                    ed:cd
                Exponent: 65537 (0x10001)
        X509v3 extensions:
            X509v3 Basic Constraints: 
                CA:FALSE
            X509v3 Key Usage: 
                Digital Signature, Non Repudiation, Key Encipherment
            X509v3 Subject Alternative Name: 
                DNS:*.matls.com
    Signature Algorithm: sha256WithRSAEncryption
         07:e1:84:ad:a2:03:e1:e2:af:80:7a:6b:4b:fb:d9:c3:e5:0e:
         45:5e:58:ca:41:52:71:89:82:c3:9d:eb:21:4e:38:6a:59:9e:
         1e:75:a6:41:d8:80:4e:4d:da:0a:0b:d5:ed:19:ed:8b:6a:37:
         86:25:00:80:f3:89:4b:01:7a:3c:4e:5a:d4:f5:31:66:1c:0e:
         04:06:2f:0b:45:d6:3d:c2:f6:5a:94:6c:07:71:e8:96:0c:db:
         ed:2d:3b:b2:69:c5:0e:a5:e6:63:c9:8f:73:0e:07:90:0a:33:
         2c:9b:a3:d5:2c:23:42:c6:ca:63:7e:8a:98:cf:7f:bd:53:4b:
         81:47:f1:7b:c3:b2:1c:d7:89:fb:f9:57:f1:4d:df:ba:d9:e7:
         cc:15:97:85:fc:60:12:8e:7c:ac:55:c4:ad:27:4b:ac:c3:eb:
         d2:b3:6e:fe:55:8b:9f:b5:1e:25:eb:64:64:57:8d:f6:0d:80:
         aa:d3:5f:82:17:a0:58:b6:6c:d2:37:5e:e8:47:07:73:37:36:
         30:ea:18:31:19:88:21:ff:c8:6a:78:09:00:8e:a2:71:a3:e9:
         43:bb:be:c2:51:4d:ee:cd:32:cc:91:67:be:95:9e:bc:99:06:
         5f:70:0e:06:28:62:3c:be:63:4b:ff:c3:52:1a:93:d6:03:95:
         54:6b:c8:84
-----BEGIN CERTIFICATE-----
MIID0jCCArqgAwIBAgIJANkpy5tFo7uYMA0GCSqGSIb3DQEBCwUAMIGfMQswCQYD
VQQGEwJVUzETMBEGA1UECAwKQ2FsaWZvcm5pYTETMBEGA1UEBwwKQ2FsaWZvcm5p
YTEWMBQGA1UECgwNQWxpY2UgQ0EgTHRkLjEWMBQGA1UECwwNQWxpY2UgQ0EgTHRk
LjEWMBQGA1UEAwwNQWxpY2UgQ0EgTHRkLjEeMBwGCSqGSIb3DQEJARYPY2FAY2Ff
YWxpY2UuY29tMB4XDTE4MDYyNDA3NTA0OFoXDTE5MDYyNDA3NTA0OFowfTELMAkG
A1UEBhMCS1IxDjAMBgNVBAgMBVNlb3VsMQ4wDAYDVQQHDAVTZW91bDEMMAoGA1UE
CgwDU05VMQ4wDAYDVQQLDAVNTUxBQjEUMBIGA1UEAwwLZC5tYXRscy5jb20xGjAY
BgkqhkiG9w0BCQEWC2RAbWF0bHMuY29tMIIBIjANBgkqhkiG9w0BAQEFAAOCAQ8A
MIIBCgKCAQEAw9+GDCrQsZCKoS5apN+7XUZgTX8VQXtm0jtRUtJksRJoNVhTC8Eh
BD26npSudQ7PUlJ7tBmBATqtmu0r/esYxWgLRRKW+DfYknSFLzvySgG7XFzkoMkb
wKq+8LtmGp/WS62NkaD4XmCg/1SlmCo5hs6u+Ote7WT0yHh8agKGGlH+twK09ZvP
xWG9M5Qx89+F/4YYknrMIxsMH21TluabpO4PKysl18SsqKutodpY64SWGIddQF1c
i1ef9POsxL1MjoNr2DPnwH8QpjDNfqfwAziSXRSK12Rm5Z9pF5FDDtQckH2jWFTe
3jVOmkDQ+fmJ9PdFigHX5awkF+9kqbPtzQIDAQABozIwMDAJBgNVHRMEAjAAMAsG
A1UdDwQEAwIF4DAWBgNVHREEDzANggsqLm1hdGxzLmNvbTANBgkqhkiG9w0BAQsF
AAOCAQEAB+GEraID4eKvgHprS/vZw+UORV5YykFScYmCw53rIU44almeHnWmQdiA
Tk3aCgvV7Rnti2o3hiUAgPOJSwF6PE5a1PUxZhwOBAYvC0XWPcL2WpRsB3Holgzb
7S07smnFDqXmY8mPcw4HkAozLJuj1SwjQsbKY36KmM9/vVNLgUfxe8OyHNeJ+/lX
8U3futnnzBWXhfxgEo58rFXErSdLrMPr0rNu/lWLn7UeJetkZFeN9g2AqtNfgheg
WLZs0jde6EcHczc2MOoYMRmIIf/IangJAI6icaPpQ7u+wlFN7s0yzJFnvpWevJkG
X3AOBihiPL5jS//DUhqT1gOVVGvIhA==
-----END CERTIFICATE-----
