Certificate:
    Data:
        Version: 3 (0x2)
        Serial Number:
            d9:29:cb:9b:45:a3:bb:a5
    Signature Algorithm: sha256WithRSAEncryption
        Issuer: C=US, ST=California, L=California, O=Alice CA Ltd., OU=Alice CA Ltd., CN=Alice CA Ltd./emailAddress=ca@ca_alice.com
        Validity
            Not Before: Jun 24 08:05:36 2018 GMT
            Not After : Jun 24 08:05:36 2019 GMT
        Subject: C=KR, ST=Seoul, L=Seoul, O=SNU, OU=MMLAB, CN=e.matls.com/emailAddress=e@matls.com
        Subject Public Key Info:
            Public Key Algorithm: rsaEncryption
                Public-Key: (2048 bit)
                Modulus:
                    00:e0:7d:fc:50:33:e4:97:ef:17:be:ae:3d:ab:2e:
                    22:45:df:ec:08:b6:70:99:cb:9f:17:9a:77:df:b0:
                    7a:c3:0c:e9:f0:a9:fb:ab:c5:48:d1:61:91:2f:08:
                    bc:fb:d0:c5:04:c8:48:c7:71:83:b3:9a:61:b5:02:
                    a9:73:dc:0b:c2:a8:b8:4a:ad:3c:9e:e9:f9:88:e6:
                    75:30:77:2d:c5:62:89:56:91:4e:a4:3e:ab:d1:27:
                    e7:0f:41:d8:57:8b:33:3f:dc:0e:4c:64:5b:e3:be:
                    1a:c7:59:53:bf:56:fb:eb:e2:48:c8:b6:a5:c8:69:
                    35:6f:38:b2:e3:6b:4e:46:f6:8f:1b:39:37:92:76:
                    47:c3:62:d4:dd:60:55:70:09:b9:c9:ea:22:10:af:
                    36:fb:b4:78:56:a2:52:21:c3:18:ad:47:a1:69:45:
                    74:bf:e5:e8:48:2b:8a:14:7f:a7:9c:79:7c:6a:0f:
                    c1:94:af:9a:72:37:4f:ba:25:94:30:8a:f9:79:65:
                    9d:39:d7:8e:6f:0a:d3:4d:2b:83:de:9c:28:8c:db:
                    50:27:1d:18:c0:50:75:cf:7c:4a:06:19:ea:58:ea:
                    61:52:58:fc:c0:e5:f6:7c:90:ae:ea:6c:d0:7a:5c:
                    7d:03:34:6e:9a:eb:37:4f:b6:28:39:fd:65:eb:c5:
                    27:5d
                Exponent: 65537 (0x10001)
        X509v3 extensions:
            X509v3 Basic Constraints: 
                CA:FALSE
            X509v3 Key Usage: 
                Digital Signature, Non Repudiation, Key Encipherment
            X509v3 Subject Alternative Name: 
                DNS:*.matls.com
    Signature Algorithm: sha256WithRSAEncryption
         76:37:1b:6f:a1:8c:f8:9c:04:a7:e9:0f:81:d7:60:43:4c:4b:
         12:3c:31:be:87:25:24:9a:e5:98:b2:4b:71:3b:eb:22:fc:a1:
         e0:e6:0f:ea:9f:d0:30:2d:c5:c2:d7:72:0c:43:c6:6c:85:49:
         fb:b0:92:53:0e:21:a6:97:dc:f0:75:28:7f:b0:b7:c9:eb:78:
         4c:a2:d5:7d:99:84:f1:a8:51:19:b3:3e:35:e4:f5:d7:68:28:
         40:d8:33:35:66:37:d6:9a:12:62:db:9a:2e:74:c7:b6:6d:11:
         22:a6:19:bf:21:06:21:64:ce:42:2e:58:44:55:68:9b:d7:16:
         b7:42:f7:b0:7f:c6:08:7f:8e:78:47:44:c8:cb:3e:95:71:02:
         78:44:01:11:45:fe:e8:c0:76:04:8f:a2:2d:e5:5e:44:ad:fe:
         f6:c4:f2:c0:cf:c1:3d:63:35:4b:4a:17:d7:4a:5a:dd:4b:64:
         47:a6:59:44:6e:cb:92:56:7e:c7:f6:84:cf:df:7d:f4:aa:50:
         22:58:a6:d2:66:94:10:f7:50:fb:c1:79:5c:75:f7:03:5d:8e:
         8b:c6:ff:11:33:f5:eb:f2:5e:bb:bc:5d:65:e5:f9:e8:fd:26:
         2a:df:b6:7d:63:a5:c7:be:ca:6a:60:5d:0f:a9:d0:6b:9c:6c:
         cd:b8:a3:2c
-----BEGIN CERTIFICATE-----
MIID0jCCArqgAwIBAgIJANkpy5tFo7ulMA0GCSqGSIb3DQEBCwUAMIGfMQswCQYD
VQQGEwJVUzETMBEGA1UECAwKQ2FsaWZvcm5pYTETMBEGA1UEBwwKQ2FsaWZvcm5p
YTEWMBQGA1UECgwNQWxpY2UgQ0EgTHRkLjEWMBQGA1UECwwNQWxpY2UgQ0EgTHRk
LjEWMBQGA1UEAwwNQWxpY2UgQ0EgTHRkLjEeMBwGCSqGSIb3DQEJARYPY2FAY2Ff
YWxpY2UuY29tMB4XDTE4MDYyNDA4MDUzNloXDTE5MDYyNDA4MDUzNlowfTELMAkG
A1UEBhMCS1IxDjAMBgNVBAgMBVNlb3VsMQ4wDAYDVQQHDAVTZW91bDEMMAoGA1UE
CgwDU05VMQ4wDAYDVQQLDAVNTUxBQjEUMBIGA1UEAwwLZS5tYXRscy5jb20xGjAY
BgkqhkiG9w0BCQEWC2VAbWF0bHMuY29tMIIBIjANBgkqhkiG9w0BAQEFAAOCAQ8A
MIIBCgKCAQEA4H38UDPkl+8Xvq49qy4iRd/sCLZwmcufF5p337B6wwzp8Kn7q8VI
0WGRLwi8+9DFBMhIx3GDs5phtQKpc9wLwqi4Sq08nun5iOZ1MHctxWKJVpFOpD6r
0SfnD0HYV4szP9wOTGRb474ax1lTv1b76+JIyLalyGk1bziy42tORvaPGzk3knZH
w2LU3WBVcAm5yeoiEK82+7R4VqJSIcMYrUehaUV0v+XoSCuKFH+nnHl8ag/BlK+a
cjdPuiWUMIr5eWWdOdeObwrTTSuD3pwojNtQJx0YwFB1z3xKBhnqWOphUlj8wOX2
fJCu6mzQelx9AzRumus3T7YoOf1l68UnXQIDAQABozIwMDAJBgNVHRMEAjAAMAsG
A1UdDwQEAwIF4DAWBgNVHREEDzANggsqLm1hdGxzLmNvbTANBgkqhkiG9w0BAQsF
AAOCAQEAdjcbb6GM+JwEp+kPgddgQ0xLEjwxvoclJJrlmLJLcTvrIvyh4OYP6p/Q
MC3FwtdyDEPGbIVJ+7CSUw4hppfc8HUof7C3yet4TKLVfZmE8ahRGbM+NeT112go
QNgzNWY31poSYtuaLnTHtm0RIqYZvyEGIWTOQi5YRFVom9cWt0L3sH/GCH+OeEdE
yMs+lXECeEQBEUX+6MB2BI+iLeVeRK3+9sTywM/BPWM1S0oX10pa3UtkR6ZZRG7L
klZ+x/aEz9999KpQIlim0maUEPdQ+8F5XHX3A12Oi8b/ETP16/Jeu7xdZeX56P0m
Kt+2fWOlx77KamBdD6nQa5xszbijLA==
-----END CERTIFICATE-----
