Certificate:
    Data:
        Version: 3 (0x2)
        Serial Number:
            d9:29:cb:9b:45:a3:bb:9a
    Signature Algorithm: sha256WithRSAEncryption
        Issuer: C=US, ST=California, L=California, O=Alice CA Ltd., OU=Alice CA Ltd., CN=Alice CA Ltd./emailAddress=ca@ca_alice.com
        Validity
            Not Before: Jun 24 07:58:19 2018 GMT
            Not After : Jun 24 07:58:19 2019 GMT
        Subject: C=KR, ST=Seoul, L=Seoul, O=SNU, OU=MMLAB, CN=f.matls.com/emailAddress=f@matls.com
        Subject Public Key Info:
            Public Key Algorithm: rsaEncryption
                Public-Key: (2048 bit)
                Modulus:
                    00:b2:8a:7b:70:81:6c:2c:b0:d3:39:b2:26:27:09:
                    16:52:ce:0e:f9:6a:18:2f:3e:f0:42:ee:d0:62:34:
                    50:fd:b3:d9:32:59:4d:52:d2:9c:b7:18:a2:61:69:
                    86:e2:9b:81:42:ac:63:0d:a5:aa:7a:a1:3d:1d:43:
                    a3:6d:33:10:53:ff:52:6a:7c:6d:ca:48:70:aa:9f:
                    ca:85:da:68:c0:e4:17:41:4a:26:aa:d8:24:c8:f2:
                    13:e1:b9:31:1e:bb:ee:93:a8:7c:aa:17:93:f1:e2:
                    b2:be:d1:fe:c7:2f:42:37:f4:16:e7:b9:5e:27:42:
                    a6:68:4a:23:79:5e:0b:93:0b:e8:94:58:0c:aa:fa:
                    ea:89:85:0e:a7:6c:9a:cf:31:8c:03:d2:c6:e7:22:
                    05:10:9c:b8:9f:b2:e2:28:6e:5a:e6:11:21:1a:58:
                    ab:00:7b:72:fc:1d:1a:db:a6:ae:a1:71:90:20:27:
                    40:1d:55:8d:76:51:1d:1d:db:a2:3c:00:d5:3a:a7:
                    49:6f:22:79:db:fe:2c:d6:cb:87:d8:2b:2b:f0:7a:
                    33:e3:ad:15:f8:51:0e:27:8e:b5:0a:ce:75:6e:8b:
                    68:d3:64:14:83:c9:4a:60:d0:d1:f3:7b:53:dd:7f:
                    a5:ea:ff:d2:ba:74:64:f0:3d:23:47:f0:a0:00:cf:
                    64:eb
                Exponent: 65537 (0x10001)
        X509v3 extensions:
            X509v3 Basic Constraints: 
                CA:FALSE
            X509v3 Key Usage: 
                Digital Signature, Non Repudiation, Key Encipherment
            X509v3 Subject Alternative Name: 
                DNS:*.matls.com
    Signature Algorithm: sha256WithRSAEncryption
         72:f6:38:18:3e:f0:7c:d1:f7:16:db:be:6c:6a:91:59:76:1d:
         d9:61:f3:22:f9:ae:02:2e:3c:42:18:02:4e:66:e5:15:ad:3b:
         11:e7:f7:e9:89:44:14:12:e0:8a:e1:80:c4:e4:34:4d:57:28:
         16:82:41:53:79:9e:e1:4d:40:75:02:10:db:06:39:ac:c7:28:
         10:0b:d6:46:3b:7f:bf:de:27:8f:7b:a5:32:2a:cb:2c:2b:16:
         34:c5:68:94:8f:2f:e0:da:a7:9d:11:97:94:ee:45:f7:bc:da:
         ef:e6:fc:06:e7:ad:14:24:30:e3:d9:44:d6:82:d8:81:2a:f4:
         dd:13:75:8a:21:99:75:93:0c:95:57:5c:06:62:9f:4b:92:9e:
         41:3a:c5:1a:f7:a4:48:79:57:d3:72:a4:a3:bf:ad:da:0e:4b:
         0c:72:a0:15:a3:99:34:f1:0f:9c:1e:2c:bd:a4:e0:cf:23:eb:
         1a:54:ea:39:d7:b5:25:0e:2f:4e:38:4c:ff:ae:b4:e0:fb:56:
         5f:c8:65:f0:e7:ac:de:fc:c9:13:04:05:85:f0:48:bb:9d:c5:
         cb:71:ad:b8:35:77:8c:5d:5d:66:d4:37:b3:84:a5:58:29:e0:
         1c:47:22:76:2c:52:f9:42:8e:9d:70:27:a3:49:5f:f8:3c:26:
         59:01:81:09
-----BEGIN CERTIFICATE-----
MIID0jCCArqgAwIBAgIJANkpy5tFo7uaMA0GCSqGSIb3DQEBCwUAMIGfMQswCQYD
VQQGEwJVUzETMBEGA1UECAwKQ2FsaWZvcm5pYTETMBEGA1UEBwwKQ2FsaWZvcm5p
YTEWMBQGA1UECgwNQWxpY2UgQ0EgTHRkLjEWMBQGA1UECwwNQWxpY2UgQ0EgTHRk
LjEWMBQGA1UEAwwNQWxpY2UgQ0EgTHRkLjEeMBwGCSqGSIb3DQEJARYPY2FAY2Ff
YWxpY2UuY29tMB4XDTE4MDYyNDA3NTgxOVoXDTE5MDYyNDA3NTgxOVowfTELMAkG
A1UEBhMCS1IxDjAMBgNVBAgMBVNlb3VsMQ4wDAYDVQQHDAVTZW91bDEMMAoGA1UE
CgwDU05VMQ4wDAYDVQQLDAVNTUxBQjEUMBIGA1UEAwwLZi5tYXRscy5jb20xGjAY
BgkqhkiG9w0BCQEWC2ZAbWF0bHMuY29tMIIBIjANBgkqhkiG9w0BAQEFAAOCAQ8A
MIIBCgKCAQEAsop7cIFsLLDTObImJwkWUs4O+WoYLz7wQu7QYjRQ/bPZMllNUtKc
txiiYWmG4puBQqxjDaWqeqE9HUOjbTMQU/9Sanxtykhwqp/KhdpowOQXQUomqtgk
yPIT4bkxHrvuk6h8qheT8eKyvtH+xy9CN/QW57leJ0KmaEojeV4LkwvolFgMqvrq
iYUOp2yazzGMA9LG5yIFEJy4n7LiKG5a5hEhGlirAHty/B0a26auoXGQICdAHVWN
dlEdHduiPADVOqdJbyJ52/4s1suH2Csr8Hoz460V+FEOJ461Cs51boto02QUg8lK
YNDR83tT3X+l6v/SunRk8D0jR/CgAM9k6wIDAQABozIwMDAJBgNVHRMEAjAAMAsG
A1UdDwQEAwIF4DAWBgNVHREEDzANggsqLm1hdGxzLmNvbTANBgkqhkiG9w0BAQsF
AAOCAQEAcvY4GD7wfNH3Ftu+bGqRWXYd2WHzIvmuAi48QhgCTmblFa07Eef36YlE
FBLgiuGAxOQ0TVcoFoJBU3me4U1AdQIQ2wY5rMcoEAvWRjt/v94nj3ulMirLLCsW
NMVolI8v4NqnnRGXlO5F97za7+b8BuetFCQw49lE1oLYgSr03RN1iiGZdZMMlVdc
BmKfS5KeQTrFGvekSHlX03Kko7+t2g5LDHKgFaOZNPEPnB4svaTgzyPrGlTqOde1
JQ4vTjhM/6604PtWX8hl8Oes3vzJEwQFhfBIu53Fy3GtuDV3jF1dZtQ3s4SlWCng
HEcidixS+UKOnXAno0lf+DwmWQGBCQ==
-----END CERTIFICATE-----
