Certificate:
    Data:
        Version: 3 (0x2)
        Serial Number:
            d9:29:cb:9b:45:a3:bb:9b
    Signature Algorithm: sha256WithRSAEncryption
        Issuer: C=US, ST=California, L=California, O=Alice CA Ltd., OU=Alice CA Ltd., CN=Alice CA Ltd./emailAddress=ca@ca_alice.com
        Validity
            Not Before: Jun 24 07:58:26 2018 GMT
            Not After : Jun 24 07:58:26 2019 GMT
        Subject: C=KR, ST=SNU, L=Seoul, O=SNU, OU=MMLAB, CN=g.matls.com/emailAddress=g@matls.com
        Subject Public Key Info:
            Public Key Algorithm: rsaEncryption
                Public-Key: (2048 bit)
                Modulus:
                    00:d3:a5:a8:d8:1c:93:73:3b:70:1c:62:23:92:4b:
                    f8:be:f9:71:3b:12:2d:ea:7c:5a:a2:4b:70:4e:92:
                    f4:25:5d:17:57:d3:a0:44:81:0e:ea:ca:3e:4f:a6:
                    4b:0d:8e:71:55:b1:44:8d:13:44:99:48:3a:ec:a7:
                    11:d7:35:0d:e8:ec:39:57:46:ba:98:e6:5b:3e:20:
                    36:df:64:c1:47:0e:f0:ab:09:b3:75:fd:9f:98:1c:
                    97:97:7f:ed:03:b7:9a:37:e5:8d:a7:58:74:13:95:
                    bb:d1:75:af:17:84:e2:39:f7:d8:5d:2b:63:f1:1a:
                    c1:ae:a8:ed:d5:cd:03:1a:d0:e3:8e:de:0d:7f:83:
                    c8:68:62:da:2e:a6:93:39:43:cb:09:b7:fe:04:42:
                    d2:c9:e5:98:8a:51:16:fc:d9:80:1a:ba:dc:24:29:
                    2f:b2:dc:3c:9c:be:89:36:bd:88:64:fd:34:26:ba:
                    a1:1e:45:b0:57:cf:29:10:58:cc:a7:3e:33:3c:53:
                    6e:c0:d7:c5:e2:6e:fe:2b:5d:4b:2f:86:df:84:d9:
                    d6:9a:98:31:a2:2d:a8:84:69:36:d8:3c:52:6e:40:
                    84:80:55:0a:f8:7c:c5:2b:50:e3:40:8b:3c:88:33:
                    bf:29:da:85:fd:e9:4e:54:1e:97:2d:a2:90:09:59:
                    a1:23
                Exponent: 65537 (0x10001)
        X509v3 extensions:
            X509v3 Basic Constraints: 
                CA:FALSE
            X509v3 Key Usage: 
                Digital Signature, Non Repudiation, Key Encipherment
            X509v3 Subject Alternative Name: 
                DNS:*.matls.com
    Signature Algorithm: sha256WithRSAEncryption
         ba:dc:87:4f:f2:4b:0e:f5:f5:69:a3:05:08:4e:da:03:26:d5:
         b5:44:cf:d3:ad:d9:a4:fe:13:06:21:70:bf:95:a9:b3:ca:f6:
         7b:eb:f2:0f:01:15:22:51:00:cd:46:ae:81:62:a1:23:8f:c7:
         d4:48:9b:a5:5b:58:b8:d5:0f:2c:0d:20:4e:4b:0c:e3:37:cf:
         0c:ce:67:27:2e:bf:28:d1:71:89:ed:df:c6:dc:42:05:81:f1:
         29:02:7b:82:9b:9f:92:ac:ea:22:46:6d:87:b9:6c:ca:29:1a:
         0a:49:aa:44:f9:81:e5:46:86:79:21:97:d8:06:b0:c9:8b:de:
         dd:89:ec:a5:8b:a2:3f:ef:b6:c9:08:06:d4:43:6d:fa:11:34:
         c0:c8:ab:77:85:33:e8:56:56:28:9f:8b:4f:b0:cf:8a:9b:7b:
         49:7e:c4:90:c7:d1:e9:3c:03:22:7c:c8:81:40:4d:cc:56:42:
         37:6b:77:07:36:6e:4f:b2:1c:e0:09:55:2e:a4:b9:7e:4b:fd:
         b3:60:15:66:25:ef:18:ef:d2:a9:51:a4:19:2b:a2:a1:02:35:
         12:4b:1e:af:4d:62:65:f4:ea:67:41:80:50:69:5c:f5:e3:23:
         30:8c:6d:bc:b2:ef:36:d4:f6:c4:de:4f:e0:c7:56:e1:ad:96:
         ae:66:79:82
-----BEGIN CERTIFICATE-----
MIID0DCCArigAwIBAgIJANkpy5tFo7ubMA0GCSqGSIb3DQEBCwUAMIGfMQswCQYD
VQQGEwJVUzETMBEGA1UECAwKQ2FsaWZvcm5pYTETMBEGA1UEBwwKQ2FsaWZvcm5p
YTEWMBQGA1UECgwNQWxpY2UgQ0EgTHRkLjEWMBQGA1UECwwNQWxpY2UgQ0EgTHRk
LjEWMBQGA1UEAwwNQWxpY2UgQ0EgTHRkLjEeMBwGCSqGSIb3DQEJARYPY2FAY2Ff
YWxpY2UuY29tMB4XDTE4MDYyNDA3NTgyNloXDTE5MDYyNDA3NTgyNlowezELMAkG
A1UEBhMCS1IxDDAKBgNVBAgMA1NOVTEOMAwGA1UEBwwFU2VvdWwxDDAKBgNVBAoM
A1NOVTEOMAwGA1UECwwFTU1MQUIxFDASBgNVBAMMC2cubWF0bHMuY29tMRowGAYJ
KoZIhvcNAQkBFgtnQG1hdGxzLmNvbTCCASIwDQYJKoZIhvcNAQEBBQADggEPADCC
AQoCggEBANOlqNgck3M7cBxiI5JL+L75cTsSLep8WqJLcE6S9CVdF1fToESBDurK
Pk+mSw2OcVWxRI0TRJlIOuynEdc1DejsOVdGupjmWz4gNt9kwUcO8KsJs3X9n5gc
l5d/7QO3mjfljadYdBOVu9F1rxeE4jn32F0rY/Eawa6o7dXNAxrQ447eDX+DyGhi
2i6mkzlDywm3/gRC0snlmIpRFvzZgBq63CQpL7LcPJy+iTa9iGT9NCa6oR5FsFfP
KRBYzKc+MzxTbsDXxeJu/itdSy+G34TZ1pqYMaItqIRpNtg8Um5AhIBVCvh8xStQ
40CLPIgzvynahf3pTlQely2ikAlZoSMCAwEAAaMyMDAwCQYDVR0TBAIwADALBgNV
HQ8EBAMCBeAwFgYDVR0RBA8wDYILKi5tYXRscy5jb20wDQYJKoZIhvcNAQELBQAD
ggEBALrch0/ySw719WmjBQhO2gMm1bVEz9Ot2aT+EwYhcL+VqbPK9nvr8g8BFSJR
AM1GroFioSOPx9RIm6VbWLjVDywNIE5LDOM3zwzOZycuvyjRcYnt38bcQgWB8SkC
e4Kbn5Ks6iJGbYe5bMopGgpJqkT5geVGhnkhl9gGsMmL3t2J7KWLoj/vtskIBtRD
bfoRNMDIq3eFM+hWViifi0+wz4qbe0l+xJDH0ek8AyJ8yIFATcxWQjdrdwc2bk+y
HOAJVS6kuX5L/bNgFWYl7xjv0qlRpBkroqECNRJLHq9NYmX06mdBgFBpXPXjIzCM
bbyy7zbU9sTeT+DHVuGtlq5meYI=
-----END CERTIFICATE-----
