Certificate:
    Data:
        Version: 3 (0x2)
        Serial Number:
            d9:29:cb:9b:45:a3:bb:9c
    Signature Algorithm: sha256WithRSAEncryption
        Issuer: C=US, ST=California, L=California, O=Alice CA Ltd., OU=Alice CA Ltd., CN=Alice CA Ltd./emailAddress=ca@ca_alice.com
        Validity
            Not Before: Jun 24 07:58:33 2018 GMT
            Not After : Jun 24 07:58:33 2019 GMT
        Subject: C=KR, ST=Seoul, L=Seoul, O=SNU, OU=MMLAB, CN=h.matls.com/emailAddress=h@matls.com
        Subject Public Key Info:
            Public Key Algorithm: rsaEncryption
                Public-Key: (2048 bit)
                Modulus:
                    00:b3:45:11:b0:68:74:ef:a2:cd:b8:3e:99:9d:10:
                    ae:01:1a:00:d0:8c:2d:c9:63:b4:91:24:41:8e:b5:
                    68:6c:3d:f3:8b:5c:0b:39:4b:ae:82:cf:46:9a:38:
                    ec:35:03:95:34:15:86:79:ce:ba:b6:70:58:c5:33:
                    8f:03:ac:4b:4c:ec:79:65:90:ec:db:3c:ea:f5:69:
                    bb:7b:2a:b8:db:26:4c:07:3a:1e:de:e0:49:5f:ec:
                    70:92:d5:9e:2a:12:e9:89:b6:eb:62:08:d6:6a:ee:
                    67:d4:66:ad:54:a9:8d:67:07:6f:29:33:8f:df:57:
                    9a:39:c5:98:df:de:bd:2c:af:b7:70:8b:98:07:e3:
                    40:79:c8:b3:59:51:be:d4:e0:52:2b:66:05:0e:9f:
                    40:91:3e:10:c4:f2:89:27:73:ea:0d:72:36:c3:b4:
                    8c:56:13:a8:4b:a8:0d:fb:f0:79:dd:3b:f0:41:2f:
                    5c:27:5e:33:6a:c8:9f:a7:c3:c2:dc:02:d5:1b:b5:
                    68:b6:6a:56:cd:e1:e8:b1:c8:ee:93:28:86:26:a7:
                    81:78:8e:35:e6:88:57:15:7f:51:f2:c8:61:9a:48:
                    48:3c:d5:81:60:e9:4e:ab:2a:7e:30:a7:5b:e0:08:
                    30:18:83:56:69:f8:89:2e:8a:d8:e2:4a:82:ab:6e:
                    34:b3
                Exponent: 65537 (0x10001)
        X509v3 extensions:
            X509v3 Basic Constraints: 
                CA:FALSE
            X509v3 Key Usage: 
                Digital Signature, Non Repudiation, Key Encipherment
            X509v3 Subject Alternative Name: 
                DNS:*.matls.com
    Signature Algorithm: sha256WithRSAEncryption
         c3:ec:cd:6d:63:62:8c:81:80:93:a4:c3:0b:00:76:e0:8c:b7:
         f9:fb:27:e7:38:af:b0:8b:7a:92:e9:18:0b:6e:e7:79:2a:9d:
         3b:11:6b:16:53:60:9a:6c:dc:f3:2d:4c:13:9c:9a:1c:50:b9:
         f5:be:16:89:5b:15:9a:8b:5e:c6:8d:90:c3:d8:f0:01:a3:d4:
         25:c7:6a:d3:a1:38:df:e2:da:65:1e:bd:01:7d:44:31:2c:40:
         b1:49:43:3a:80:8a:41:7e:53:af:03:74:f1:e6:5e:d1:f6:d6:
         bb:c8:75:39:ff:43:90:9e:42:a9:03:0a:0a:26:91:0a:9e:75:
         6a:1c:95:fa:9d:09:30:95:d7:bf:18:e5:39:09:9f:23:71:8d:
         38:33:8c:47:19:3e:3b:b2:0b:ba:3f:e4:e4:23:de:af:00:e8:
         bc:41:ca:71:49:86:45:2e:72:c8:2b:7d:31:02:f0:29:c5:6b:
         43:a6:fc:07:3d:4e:f2:df:09:f8:3c:87:77:6e:26:77:de:44:
         c8:0c:03:75:0f:ef:06:95:01:d5:4a:83:02:e0:1d:c6:90:40:
         e8:8e:a5:c2:b9:d7:41:e0:87:fe:4d:dc:c3:1f:64:6e:e4:74:
         14:6d:52:20:44:ca:47:ae:a3:ad:fe:a6:3d:29:71:d3:ec:47:
         19:e4:63:63
-----BEGIN CERTIFICATE-----
MIID0jCCArqgAwIBAgIJANkpy5tFo7ucMA0GCSqGSIb3DQEBCwUAMIGfMQswCQYD
VQQGEwJVUzETMBEGA1UECAwKQ2FsaWZvcm5pYTETMBEGA1UEBwwKQ2FsaWZvcm5p
YTEWMBQGA1UECgwNQWxpY2UgQ0EgTHRkLjEWMBQGA1UECwwNQWxpY2UgQ0EgTHRk
LjEWMBQGA1UEAwwNQWxpY2UgQ0EgTHRkLjEeMBwGCSqGSIb3DQEJARYPY2FAY2Ff
YWxpY2UuY29tMB4XDTE4MDYyNDA3NTgzM1oXDTE5MDYyNDA3NTgzM1owfTELMAkG
A1UEBhMCS1IxDjAMBgNVBAgMBVNlb3VsMQ4wDAYDVQQHDAVTZW91bDEMMAoGA1UE
CgwDU05VMQ4wDAYDVQQLDAVNTUxBQjEUMBIGA1UEAwwLaC5tYXRscy5jb20xGjAY
BgkqhkiG9w0BCQEWC2hAbWF0bHMuY29tMIIBIjANBgkqhkiG9w0BAQEFAAOCAQ8A
MIIBCgKCAQEAs0URsGh076LNuD6ZnRCuARoA0IwtyWO0kSRBjrVobD3zi1wLOUuu
gs9GmjjsNQOVNBWGec66tnBYxTOPA6xLTOx5ZZDs2zzq9Wm7eyq42yZMBzoe3uBJ
X+xwktWeKhLpibbrYgjWau5n1GatVKmNZwdvKTOP31eaOcWY3969LK+3cIuYB+NA
ecizWVG+1OBSK2YFDp9AkT4QxPKJJ3PqDXI2w7SMVhOoS6gN+/B53TvwQS9cJ14z
asifp8PC3ALVG7VotmpWzeHoscjukyiGJqeBeI415ohXFX9R8shhmkhIPNWBYOlO
qyp+MKdb4AgwGINWafiJLorY4kqCq240swIDAQABozIwMDAJBgNVHRMEAjAAMAsG
A1UdDwQEAwIF4DAWBgNVHREEDzANggsqLm1hdGxzLmNvbTANBgkqhkiG9w0BAQsF
AAOCAQEAw+zNbWNijIGAk6TDCwB24Iy3+fsn5zivsIt6kukYC27neSqdOxFrFlNg
mmzc8y1ME5yaHFC59b4WiVsVmotexo2Qw9jwAaPUJcdq06E43+LaZR69AX1EMSxA
sUlDOoCKQX5TrwN08eZe0fbWu8h1Of9DkJ5CqQMKCiaRCp51ahyV+p0JMJXXvxjl
OQmfI3GNODOMRxk+O7ILuj/k5CPerwDovEHKcUmGRS5yyCt9MQLwKcVrQ6b8Bz1O
8t8J+DyHd24md95EyAwDdQ/vBpUB1UqDAuAdxpBA6I6lwrnXQeCH/k3cwx9kbuR0
FG1SIETKR66jrf6mPSlx0+xHGeRjYw==
-----END CERTIFICATE-----
