Certificate:
    Data:
        Version: 3 (0x2)
        Serial Number:
            d9:29:cb:9b:45:a3:bb:9d
    Signature Algorithm: sha256WithRSAEncryption
        Issuer: C=US, ST=California, L=California, O=Alice CA Ltd., OU=Alice CA Ltd., CN=Alice CA Ltd./emailAddress=ca@ca_alice.com
        Validity
            Not Before: Jun 24 07:58:40 2018 GMT
            Not After : Jun 24 07:58:40 2019 GMT
        Subject: C=KR, ST=Seoul, L=Seoul, O=SNU, OU=MMLAB, CN=i.matls.com/emailAddress=i@matls.com
        Subject Public Key Info:
            Public Key Algorithm: rsaEncryption
                Public-Key: (2048 bit)
                Modulus:
                    00:bc:28:e6:a5:fc:4b:fc:9d:20:08:5d:f9:7b:53:
                    05:80:bc:b9:3b:eb:d0:39:2f:01:14:90:25:cf:d3:
                    dc:71:bc:91:df:3d:c8:e2:d7:bb:d4:91:9d:09:19:
                    63:36:12:8f:fc:f7:a4:e6:32:c7:06:78:a4:ec:ae:
                    64:db:e6:b6:13:65:1d:cd:ba:64:32:31:75:9e:9c:
                    63:60:e2:ea:45:18:99:e0:7d:18:f5:de:a7:0d:52:
                    16:69:6d:58:6b:12:1b:e7:e7:80:f4:4f:75:32:b8:
                    17:50:00:27:c2:18:26:c5:eb:2b:f2:5c:1f:3c:3a:
                    b4:1b:35:1e:06:b9:b5:d4:d8:c9:7f:0d:e1:88:ce:
                    8d:55:c1:94:1d:e6:84:d1:4b:92:75:09:c2:ab:96:
                    6c:d7:1b:41:42:9b:63:6e:e8:ab:fa:0c:37:4e:0f:
                    6a:81:07:7c:7a:a4:42:0f:9f:69:a8:6c:04:b4:67:
                    e4:95:12:e8:98:9a:3a:20:e7:d0:b2:bc:b7:6b:00:
                    ca:67:5d:29:54:36:71:55:00:e0:56:0c:a9:09:97:
                    38:7d:05:d5:41:ca:62:23:a7:dd:f6:38:db:88:62:
                    f6:42:6b:d3:ed:3a:92:1d:7c:75:b1:0e:db:23:57:
                    ba:64:b4:0a:5e:6c:4e:a9:42:26:be:af:83:6c:52:
                    81:21
                Exponent: 65537 (0x10001)
        X509v3 extensions:
            X509v3 Basic Constraints: 
                CA:FALSE
            X509v3 Key Usage: 
                Digital Signature, Non Repudiation, Key Encipherment
            X509v3 Subject Alternative Name: 
                DNS:*.matls.com
    Signature Algorithm: sha256WithRSAEncryption
         ac:15:01:1e:fe:44:c5:98:0f:38:dd:9b:ab:68:f7:9c:22:62:
         b0:93:53:99:93:20:fc:8a:25:1b:f3:26:a7:bd:22:d9:e3:90:
         c9:ac:29:43:25:82:cc:e9:3f:52:be:46:24:94:b5:5d:b3:b0:
         b0:3d:90:3e:fd:0b:9b:48:87:b7:a0:98:b2:bd:40:93:b0:e6:
         82:5b:83:36:02:89:0f:31:d9:33:9b:a8:db:af:a0:32:81:da:
         2b:32:da:69:f4:3b:9f:50:65:e9:e7:b7:8a:19:16:16:5f:bb:
         57:75:fb:e0:89:d6:80:37:df:e0:69:c2:11:98:8b:b5:80:1a:
         89:39:b7:92:16:a7:06:54:7c:15:12:f4:e8:31:b6:2d:4c:13:
         f6:00:2f:1f:64:cc:85:22:eb:6f:59:57:f2:a5:e1:f1:f4:75:
         c1:e0:1d:1d:6a:d9:72:d9:83:62:1b:8a:f1:bd:c5:3c:e1:2a:
         8c:52:44:85:15:b2:4e:c9:97:97:51:b1:97:b3:c0:4c:44:98:
         63:67:a1:78:7f:cf:e0:3a:5f:58:70:05:62:f1:b6:11:10:21:
         11:d2:df:d9:1a:72:ba:33:03:ae:16:19:15:4d:a9:62:8f:1a:
         d9:8f:18:44:3f:f5:39:dc:fd:73:6e:ce:f2:14:8a:fb:3e:b7:
         ed:a8:37:56
-----BEGIN CERTIFICATE-----
MIID0jCCArqgAwIBAgIJANkpy5tFo7udMA0GCSqGSIb3DQEBCwUAMIGfMQswCQYD
VQQGEwJVUzETMBEGA1UECAwKQ2FsaWZvcm5pYTETMBEGA1UEBwwKQ2FsaWZvcm5p
YTEWMBQGA1UECgwNQWxpY2UgQ0EgTHRkLjEWMBQGA1UECwwNQWxpY2UgQ0EgTHRk
LjEWMBQGA1UEAwwNQWxpY2UgQ0EgTHRkLjEeMBwGCSqGSIb3DQEJARYPY2FAY2Ff
YWxpY2UuY29tMB4XDTE4MDYyNDA3NTg0MFoXDTE5MDYyNDA3NTg0MFowfTELMAkG
A1UEBhMCS1IxDjAMBgNVBAgMBVNlb3VsMQ4wDAYDVQQHDAVTZW91bDEMMAoGA1UE
CgwDU05VMQ4wDAYDVQQLDAVNTUxBQjEUMBIGA1UEAwwLaS5tYXRscy5jb20xGjAY
BgkqhkiG9w0BCQEWC2lAbWF0bHMuY29tMIIBIjANBgkqhkiG9w0BAQEFAAOCAQ8A
MIIBCgKCAQEAvCjmpfxL/J0gCF35e1MFgLy5O+vQOS8BFJAlz9PccbyR3z3I4te7
1JGdCRljNhKP/Pek5jLHBnik7K5k2+a2E2UdzbpkMjF1npxjYOLqRRiZ4H0Y9d6n
DVIWaW1YaxIb5+eA9E91MrgXUAAnwhgmxesr8lwfPDq0GzUeBrm11NjJfw3hiM6N
VcGUHeaE0UuSdQnCq5Zs1xtBQptjbuir+gw3Tg9qgQd8eqRCD59pqGwEtGfklRLo
mJo6IOfQsry3awDKZ10pVDZxVQDgVgypCZc4fQXVQcpiI6fd9jjbiGL2QmvT7TqS
HXx1sQ7bI1e6ZLQKXmxOqUImvq+DbFKBIQIDAQABozIwMDAJBgNVHRMEAjAAMAsG
A1UdDwQEAwIF4DAWBgNVHREEDzANggsqLm1hdGxzLmNvbTANBgkqhkiG9w0BAQsF
AAOCAQEArBUBHv5ExZgPON2bq2j3nCJisJNTmZMg/IolG/Mmp70i2eOQyawpQyWC
zOk/Ur5GJJS1XbOwsD2QPv0Lm0iHt6CYsr1Ak7DmgluDNgKJDzHZM5uo26+gMoHa
KzLaafQ7n1Bl6ee3ihkWFl+7V3X74InWgDff4GnCEZiLtYAaiTm3khanBlR8FRL0
6DG2LUwT9gAvH2TMhSLrb1lX8qXh8fR1weAdHWrZctmDYhuK8b3FPOEqjFJEhRWy
TsmXl1Gxl7PATESYY2eheH/P4DpfWHAFYvG2ERAhEdLf2RpyujMDrhYZFU2pYo8a
2Y8YRD/1Odz9c27O8hSK+z637ag3Vg==
-----END CERTIFICATE-----
