Certificate:
    Data:
        Version: 3 (0x2)
        Serial Number:
            d9:29:cb:9b:45:a3:bb:95
    Signature Algorithm: sha256WithRSAEncryption
        Issuer: C=US, ST=California, L=California, O=Alice CA Ltd., OU=Alice CA Ltd., CN=Alice CA Ltd./emailAddress=ca@ca_alice.com
        Validity
            Not Before: Jun 24 07:41:35 2018 GMT
            Not After : Jun 24 07:41:35 2019 GMT
        Subject: C=KR, ST=Seoul, L=Seoul, O=Middlebox-Aware TLS, OU=MMLAB, CN=a.matls.com/emailAddress=a@matls.com
        Subject Public Key Info:
            Public Key Algorithm: rsaEncryption
                Public-Key: (2048 bit)
                Modulus:
                    00:e6:c4:08:0e:1a:1a:cb:60:55:ba:c4:58:bb:9f:
                    ce:30:c5:04:d7:d8:ff:fe:54:94:a0:3a:bf:0a:39:
                    59:a5:5f:a4:85:d5:fb:b9:3d:1d:59:8b:f5:42:ea:
                    74:48:20:75:fa:b9:9c:8f:82:b1:85:89:fc:18:ae:
                    d5:d8:0d:1d:a1:a6:8f:ae:11:99:46:4d:47:c1:1f:
                    44:66:ac:cb:07:9d:c6:2a:fb:ef:2a:28:56:4c:8b:
                    38:d3:1b:43:04:a9:cb:56:18:32:6e:2e:2a:cd:ac:
                    07:c4:aa:2a:fd:53:a6:34:a2:01:5f:6a:4f:ea:de:
                    3e:a7:f9:c3:d0:cb:75:d8:78:00:f4:aa:84:86:ea:
                    75:6a:bf:45:4c:0a:bf:be:e1:e0:b7:31:32:fd:f2:
                    a6:91:bf:be:a7:ce:83:ab:02:77:0b:72:8d:76:57:
                    0a:31:23:67:d6:1f:42:ed:2d:d5:e8:a4:33:9a:48:
                    15:d5:d6:8e:2a:49:f7:68:6a:d7:1a:13:25:9a:1b:
                    f4:c7:7b:5d:c7:b2:05:8d:5f:c2:d7:46:c7:5c:1b:
                    2e:b9:c3:24:b2:0c:89:fe:67:a8:56:22:b6:d4:0b:
                    16:df:27:dc:ab:a7:09:58:48:e6:1c:92:ca:0b:75:
                    2b:e5:15:88:62:32:04:69:6b:29:25:07:32:3f:f3:
                    3b:5d
                Exponent: 65537 (0x10001)
        X509v3 extensions:
            X509v3 Basic Constraints: 
                CA:FALSE
            X509v3 Key Usage: 
                Digital Signature, Non Repudiation, Key Encipherment
            X509v3 Subject Alternative Name: 
                DNS:*.matls.com
    Signature Algorithm: sha256WithRSAEncryption
         2a:00:8d:5a:c6:2e:91:59:62:7e:e7:11:ab:e2:63:f6:23:a2:
         93:83:17:a3:91:0c:90:a4:50:ca:7a:7f:5e:99:a7:11:a7:9b:
         31:f7:ac:9f:68:2c:1c:0e:76:9c:4e:08:e2:f2:99:90:d6:02:
         00:11:5e:df:40:93:42:7e:e6:31:0b:e0:71:90:8f:37:2e:20:
         79:90:54:f2:56:0e:dc:cb:a0:74:9e:aa:cd:fe:ff:ec:91:e9:
         83:c0:3a:48:5b:bf:12:07:14:10:cf:53:d0:a8:11:34:4f:49:
         a8:9b:00:1b:b4:a8:85:9a:28:d3:2e:6c:37:36:ac:f1:1b:6b:
         58:f0:99:77:14:8b:93:02:dd:81:43:a9:92:92:8d:18:f7:82:
         b4:bc:c9:d9:45:54:91:c0:09:68:db:84:64:37:a6:73:3b:e6:
         f0:a8:0f:3c:ef:fb:19:3c:0e:c9:00:94:d4:75:c0:e3:14:e1:
         83:33:e7:cd:ee:ea:03:fb:9c:41:1a:fe:f0:69:89:f2:e4:77:
         22:6b:a9:04:10:e5:bc:78:d4:77:5f:5c:ad:c2:41:4d:e9:9f:
         0b:bf:8d:38:e3:3e:d2:d0:a8:d1:90:56:90:fe:f4:0f:8f:b7:
         a5:b0:66:51:d3:57:6d:9b:59:55:10:b6:63:37:38:ee:78:8f:
         4f:09:23:66
-----BEGIN CERTIFICATE-----
MIID4zCCAsugAwIBAgIJANkpy5tFo7uVMA0GCSqGSIb3DQEBCwUAMIGfMQswCQYD
VQQGEwJVUzETMBEGA1UECAwKQ2FsaWZvcm5pYTETMBEGA1UEBwwKQ2FsaWZvcm5p
YTEWMBQGA1UECgwNQWxpY2UgQ0EgTHRkLjEWMBQGA1UECwwNQWxpY2UgQ0EgTHRk
LjEWMBQGA1UEAwwNQWxpY2UgQ0EgTHRkLjEeMBwGCSqGSIb3DQEJARYPY2FAY2Ff
YWxpY2UuY29tMB4XDTE4MDYyNDA3NDEzNVoXDTE5MDYyNDA3NDEzNVowgY0xCzAJ
BgNVBAYTAktSMQ4wDAYDVQQIDAVTZW91bDEOMAwGA1UEBwwFU2VvdWwxHDAaBgNV
BAoME01pZGRsZWJveC1Bd2FyZSBUTFMxDjAMBgNVBAsMBU1NTEFCMRQwEgYDVQQD
DAthLm1hdGxzLmNvbTEaMBgGCSqGSIb3DQEJARYLYUBtYXRscy5jb20wggEiMA0G
CSqGSIb3DQEBAQUAA4IBDwAwggEKAoIBAQDmxAgOGhrLYFW6xFi7n84wxQTX2P/+
VJSgOr8KOVmlX6SF1fu5PR1Zi/VC6nRIIHX6uZyPgrGFifwYrtXYDR2hpo+uEZlG
TUfBH0RmrMsHncYq++8qKFZMizjTG0MEqctWGDJuLirNrAfEqir9U6Y0ogFfak/q
3j6n+cPQy3XYeAD0qoSG6nVqv0VMCr++4eC3MTL98qaRv76nzoOrAncLco12Vwox
I2fWH0LtLdXopDOaSBXV1o4qSfdoatcaEyWaG/THe13HsgWNX8LXRsdcGy65wySy
DIn+Z6hWIrbUCxbfJ9yrpwlYSOYcksoLdSvlFYhiMgRpayklBzI/8ztdAgMBAAGj
MjAwMAkGA1UdEwQCMAAwCwYDVR0PBAQDAgXgMBYGA1UdEQQPMA2CCyoubWF0bHMu
Y29tMA0GCSqGSIb3DQEBCwUAA4IBAQAqAI1axi6RWWJ+5xGr4mP2I6KTgxejkQyQ
pFDKen9emacRp5sx96yfaCwcDnacTgji8pmQ1gIAEV7fQJNCfuYxC+BxkI83LiB5
kFTyVg7cy6B0nqrN/v/skemDwDpIW78SBxQQz1PQqBE0T0momwAbtKiFmijTLmw3
NqzxG2tY8Jl3FIuTAt2BQ6mSko0Y94K0vMnZRVSRwAlo24RkN6ZzO+bwqA887/sZ
PA7JAJTUdcDjFOGDM+fN7uoD+5xBGv7waYny5Hcia6kEEOW8eNR3X1ytwkFN6Z8L
v4044z7S0KjRkFaQ/vQPj7elsGZR01dtm1lVELZjNzjueI9PCSNm
-----END CERTIFICATE-----
