Certificate:
    Data:
        Version: 3 (0x2)
        Serial Number:
            d9:29:cb:9b:45:a3:bb:96
    Signature Algorithm: sha256WithRSAEncryption
        Issuer: C=US, ST=California, L=California, O=Alice CA Ltd., OU=Alice CA Ltd., CN=Alice CA Ltd./emailAddress=ca@ca_alice.com
        Validity
            Not Before: Jun 24 07:41:50 2018 GMT
            Not After : Jun 24 07:41:50 2019 GMT
        Subject: C=KR, ST=Seoul, L=Seoul, O=SNU, OU=MMLAB, CN=b.matls.com/emailAddress=b@matls.com
        Subject Public Key Info:
            Public Key Algorithm: rsaEncryption
                Public-Key: (2048 bit)
                Modulus:
                    00:d1:7b:fc:74:81:9a:ae:d2:d8:09:a8:75:f9:68:
                    cd:9e:51:1d:c7:b2:69:ef:f2:58:49:55:c1:d1:9c:
                    cb:ed:07:6f:d0:06:4c:20:ff:d6:47:50:d7:62:7e:
                    50:f9:4f:d6:99:5c:6b:1b:13:5b:5e:37:e6:06:b8:
                    15:ea:17:79:d4:a3:13:e1:25:23:7b:86:e1:00:7c:
                    be:29:90:28:4c:33:2e:c3:06:06:21:df:e0:2d:60:
                    5c:f5:07:73:d5:c9:72:38:dd:7f:82:af:23:a8:ac:
                    ee:7e:21:c2:77:06:cf:8d:79:d4:ef:41:02:8d:c9:
                    dc:dc:24:97:36:3b:33:06:b4:55:34:96:4c:2f:85:
                    37:c2:30:ae:27:d6:7f:64:65:e4:35:1c:80:4d:41:
                    ed:f8:14:91:4e:3b:09:ad:3b:72:27:b4:18:57:0a:
                    98:75:9e:94:e5:a7:9d:31:1e:e7:2a:8f:ce:41:6b:
                    cb:0b:00:76:2a:6a:64:eb:d4:d8:4a:cd:5a:24:8b:
                    b6:4d:67:dc:43:01:53:71:37:83:8e:c2:e7:8c:ef:
                    5c:17:dc:73:05:a4:91:39:21:0c:6c:5b:39:94:b9:
                    98:3a:ca:eb:de:ff:18:79:87:b4:67:31:25:62:ed:
                    39:b6:5f:e5:dc:63:ff:e4:f3:69:21:1e:e0:a7:d0:
                    d3:a1
                Exponent: 65537 (0x10001)
        X509v3 extensions:
            X509v3 Basic Constraints: 
                CA:FALSE
            X509v3 Key Usage: 
                Digital Signature, Non Repudiation, Key Encipherment
            X509v3 Subject Alternative Name: 
                DNS:*.matls.com
    Signature Algorithm: sha256WithRSAEncryption
         c5:a4:e1:a2:4a:f0:8d:ff:80:6b:1d:dd:36:ef:10:58:5f:39:
         7f:04:c9:d9:5a:50:79:8a:14:d9:43:75:08:96:bf:90:34:ee:
         d0:82:95:49:e7:fc:a7:2e:ab:c7:34:c1:84:23:cb:a8:88:c4:
         41:b4:16:f5:1a:e6:3f:9f:64:1c:d9:6f:32:0c:24:a3:e8:9f:
         21:8c:31:be:eb:b3:f0:66:e2:59:ef:cc:83:6a:a7:78:e2:50:
         5f:dd:be:67:b4:e1:f4:5a:2c:ba:1f:c0:be:49:e4:36:ee:e5:
         27:35:47:4d:2e:c3:04:b1:a4:fc:96:49:39:7a:65:a2:ee:ac:
         fb:10:1f:89:ec:d5:99:dc:35:51:40:04:61:40:03:b9:6f:be:
         e8:17:f6:f9:b2:99:f0:84:2c:4c:93:0e:02:21:d8:8d:6a:fa:
         ed:b6:e7:71:a3:6a:13:6d:ce:c6:d2:f0:31:b8:33:9c:a7:1a:
         6e:7a:dc:91:c0:cd:80:63:20:4a:67:45:e2:a4:10:10:49:01:
         a0:2c:df:3b:a2:35:0a:f2:e7:1a:de:53:4a:b5:53:af:b5:43:
         89:c8:38:ca:ed:71:b5:70:8a:9d:9f:29:ff:e8:6b:fd:d6:06:
         03:43:b6:7b:ad:35:b2:30:a2:92:1b:cc:7c:16:96:a9:88:0c:
         24:de:65:f6
-----BEGIN CERTIFICATE-----
MIID0jCCArqgAwIBAgIJANkpy5tFo7uWMA0GCSqGSIb3DQEBCwUAMIGfMQswCQYD
VQQGEwJVUzETMBEGA1UECAwKQ2FsaWZvcm5pYTETMBEGA1UEBwwKQ2FsaWZvcm5p
YTEWMBQGA1UECgwNQWxpY2UgQ0EgTHRkLjEWMBQGA1UECwwNQWxpY2UgQ0EgTHRk
LjEWMBQGA1UEAwwNQWxpY2UgQ0EgTHRkLjEeMBwGCSqGSIb3DQEJARYPY2FAY2Ff
YWxpY2UuY29tMB4XDTE4MDYyNDA3NDE1MFoXDTE5MDYyNDA3NDE1MFowfTELMAkG
A1UEBhMCS1IxDjAMBgNVBAgMBVNlb3VsMQ4wDAYDVQQHDAVTZW91bDEMMAoGA1UE
CgwDU05VMQ4wDAYDVQQLDAVNTUxBQjEUMBIGA1UEAwwLYi5tYXRscy5jb20xGjAY
BgkqhkiG9w0BCQEWC2JAbWF0bHMuY29tMIIBIjANBgkqhkiG9w0BAQEFAAOCAQ8A
MIIBCgKCAQEA0Xv8dIGartLYCah1+WjNnlEdx7Jp7/JYSVXB0ZzL7Qdv0AZMIP/W
R1DXYn5Q+U/WmVxrGxNbXjfmBrgV6hd51KMT4SUje4bhAHy+KZAoTDMuwwYGId/g
LWBc9Qdz1clyON1/gq8jqKzufiHCdwbPjXnU70ECjcnc3CSXNjszBrRVNJZML4U3
wjCuJ9Z/ZGXkNRyATUHt+BSRTjsJrTtyJ7QYVwqYdZ6U5aedMR7nKo/OQWvLCwB2
Kmpk69TYSs1aJIu2TWfcQwFTcTeDjsLnjO9cF9xzBaSROSEMbFs5lLmYOsrr3v8Y
eYe0ZzElYu05tl/l3GP/5PNpIR7gp9DToQIDAQABozIwMDAJBgNVHRMEAjAAMAsG
A1UdDwQEAwIF4DAWBgNVHREEDzANggsqLm1hdGxzLmNvbTANBgkqhkiG9w0BAQsF
AAOCAQEAxaThokrwjf+Aax3dNu8QWF85fwTJ2VpQeYoU2UN1CJa/kDTu0IKVSef8
py6rxzTBhCPLqIjEQbQW9RrmP59kHNlvMgwko+ifIYwxvuuz8GbiWe/Mg2qneOJQ
X92+Z7Th9Fosuh/AvknkNu7lJzVHTS7DBLGk/JZJOXplou6s+xAfiezVmdw1UUAE
YUADuW++6Bf2+bKZ8IQsTJMOAiHYjWr67bbncaNqE23OxtLwMbgznKcabnrckcDN
gGMgSmdF4qQQEEkBoCzfO6I1CvLnGt5TSrVTr7VDicg4yu1xtXCKnZ8p/+hr/dYG
A0O2e601sjCikhvMfBaWqYgMJN5l9g==
-----END CERTIFICATE-----
