Certificate:
    Data:
        Version: 3 (0x2)
        Serial Number:
            d9:29:cb:9b:45:a3:bb:94
        Signature Algorithm: sha256WithRSAEncryption
        Issuer: C=US, ST=California, L=California, O=Alice CA Ltd., OU=Alice CA Ltd., CN=Alice CA Ltd./emailAddress=ca@ca_alice.com
        Validity
            Not Before: Apr 25 06:54:32 2018 GMT
            Not After : Apr 25 06:54:32 2019 GMT
        Subject: C=KR, ST=Seoul, L=Seoul, O=Middlebox-aware TLS, OU=SNU, CN=matls@matls.com/emailAddress=matls@matls.com
        Subject Public Key Info:
            Public Key Algorithm: rsaEncryption
                RSA Public-Key: (2048 bit)
                Modulus:
                    00:d0:8b:41:23:fd:32:78:f8:78:39:ce:06:92:f8:
                    ed:80:35:be:02:3e:56:4f:10:72:46:9e:53:f7:07:
                    bc:86:c8:dc:79:3d:25:96:da:28:dc:a0:78:1a:f2:
                    ec:95:6c:a6:73:c8:23:e4:14:9b:ff:6a:f4:a4:93:
                    ef:da:0a:2a:de:d4:16:3e:83:40:61:a6:22:3e:26:
                    ee:f8:95:85:25:bb:27:ac:2f:65:82:d2:59:39:52:
                    7b:f0:a3:dd:17:8a:32:06:88:1a:57:d0:83:f6:73:
                    8f:07:de:a0:15:6e:de:54:d6:68:cb:5b:4c:12:7d:
                    87:37:ee:44:6e:b8:84:b6:e8:83:64:22:62:ae:d2:
                    d9:a9:d9:05:a5:d2:1e:ff:19:3a:1e:51:8f:10:00:
                    44:46:56:21:c9:2e:52:61:3e:bf:6d:1e:3a:c5:9d:
                    14:43:f4:17:df:dd:7f:56:83:f0:f9:bc:d8:a6:19:
                    4b:41:8d:36:ed:69:1f:ea:e2:21:84:50:a0:4b:e0:
                    d4:a0:a8:34:1a:a9:d0:a8:3c:52:98:6c:6e:d5:ad:
                    b0:13:e3:3b:aa:5c:c4:21:9e:92:97:83:2c:32:29:
                    91:0c:1c:8d:10:dc:64:7a:1f:f6:78:99:86:34:ed:
                    4d:37:72:df:53:a3:6d:4d:cf:17:3c:7d:75:de:63:
                    81:05
                Exponent: 65537 (0x10001)
        X509v3 extensions:
            X509v3 Basic Constraints: 
                CA:FALSE
            X509v3 Key Usage: 
                Digital Signature, Non Repudiation, Key Encipherment
            X509v3 Subject Alternative Name: 
                DNS:*.matls.com
    Signature Algorithm: sha256WithRSAEncryption
         17:68:cf:75:15:bd:78:b7:df:ee:c8:7e:04:4e:67:ea:69:d8:
         e3:d3:6f:d2:e7:b8:76:b6:93:60:7a:48:0a:ba:bd:4c:00:ac:
         e3:4a:61:dd:57:93:45:c2:81:a7:e4:33:c6:80:eb:d9:cb:e9:
         9b:97:37:d9:08:4e:03:b9:7d:13:cd:b3:18:81:88:0c:eb:2b:
         df:37:73:83:7b:9e:67:05:6d:95:7e:f9:b1:b6:dd:cb:be:2a:
         af:4e:13:f5:e0:f1:cd:17:c7:88:8d:95:60:62:4f:32:aa:d5:
         ba:e5:66:3e:84:5e:a9:17:ee:81:37:58:4f:97:41:9d:84:46:
         15:c5:e6:a7:d3:a9:fd:0c:60:c1:5a:f1:69:3a:24:b9:67:d3:
         04:0b:c3:da:b8:d4:7e:48:6c:a6:9f:91:09:cb:9a:14:d0:81:
         17:19:f3:b4:8c:ab:0b:e9:12:d8:b8:d9:38:ee:f6:95:57:95:
         74:1a:2b:f6:ed:c6:10:77:b4:e0:ce:46:20:1a:b1:27:4b:1d:
         90:30:30:84:7a:cc:c6:51:e6:5c:64:3a:d7:f8:85:56:1a:18:
         6e:39:60:6b:f3:22:0c:e9:d6:56:05:b1:ca:a4:2c:2b:97:57:
         98:3f:b8:1d:57:bd:46:e8:6e:cc:ab:30:dc:71:fb:cb:d5:c6:
         7d:0a:2c:82
-----BEGIN CERTIFICATE-----
MIID6TCCAtGgAwIBAgIJANkpy5tFo7uUMA0GCSqGSIb3DQEBCwUAMIGfMQswCQYD
VQQGEwJVUzETMBEGA1UECAwKQ2FsaWZvcm5pYTETMBEGA1UEBwwKQ2FsaWZvcm5p
YTEWMBQGA1UECgwNQWxpY2UgQ0EgTHRkLjEWMBQGA1UECwwNQWxpY2UgQ0EgTHRk
LjEWMBQGA1UEAwwNQWxpY2UgQ0EgTHRkLjEeMBwGCSqGSIb3DQEJARYPY2FAY2Ff
YWxpY2UuY29tMB4XDTE4MDQyNTA2NTQzMloXDTE5MDQyNTA2NTQzMlowgZMxCzAJ
BgNVBAYTAktSMQ4wDAYDVQQIDAVTZW91bDEOMAwGA1UEBwwFU2VvdWwxHDAaBgNV
BAoME01pZGRsZWJveC1hd2FyZSBUTFMxDDAKBgNVBAsMA1NOVTEYMBYGA1UEAwwP
bWF0bHNAbWF0bHMuY29tMR4wHAYJKoZIhvcNAQkBFg9tYXRsc0BtYXRscy5jb20w
ggEiMA0GCSqGSIb3DQEBAQUAA4IBDwAwggEKAoIBAQDQi0Ej/TJ4+Hg5zgaS+O2A
Nb4CPlZPEHJGnlP3B7yGyNx5PSWW2ijcoHga8uyVbKZzyCPkFJv/avSkk+/aCire
1BY+g0BhpiI+Ju74lYUluyesL2WC0lk5Unvwo90XijIGiBpX0IP2c48H3qAVbt5U
1mjLW0wSfYc37kRuuIS26INkImKu0tmp2QWl0h7/GToeUY8QAERGViHJLlJhPr9t
HjrFnRRD9Bff3X9Wg/D5vNimGUtBjTbtaR/q4iGEUKBL4NSgqDQaqdCoPFKYbG7V
rbAT4zuqXMQhnpKXgywyKZEMHI0Q3GR6H/Z4mYY07U03ct9To21Nzxc8fXXeY4EF
AgMBAAGjMjAwMAkGA1UdEwQCMAAwCwYDVR0PBAQDAgXgMBYGA1UdEQQPMA2CCyou
bWF0bHMuY29tMA0GCSqGSIb3DQEBCwUAA4IBAQAXaM91Fb14t9/uyH4ETmfqadjj
02/S57h2tpNgekgKur1MAKzjSmHdV5NFwoGn5DPGgOvZy+mblzfZCE4DuX0TzbMY
gYgM6yvfN3ODe55nBW2Vfvmxtt3LviqvThP14PHNF8eIjZVgYk8yqtW65WY+hF6p
F+6BN1hPl0GdhEYVxean06n9DGDBWvFpOiS5Z9MEC8PauNR+SGymn5EJy5oU0IEX
GfO0jKsL6RLYuNk47vaVV5V0Giv27cYQd7TgzkYgGrEnSx2QMDCEeszGUeZcZDrX
+IVWGhhuOWBr8yIM6dZWBbHKpCwrl1eYP7gdV71G6G7MqzDccfvL1cZ9CiyC
-----END CERTIFICATE-----
